(dp1
I0
I00
sI1
I01
sI2
I00
sI9
I01
sI14
I00
sI15
I00
sI18
I00
sI21
I01
sI22
I01
sI23
I01
sI24
I00
sI25
I01
sI28
I01
sI29
I00
sI30
I01
sI35
I00
sI37
I01
sI39
I01
sI43
I01
sI47
I00
sI48
I00
sI49
I01
sI50
I01
sI54
I01
sI55
I01
sI59
I00
sI63
I01
sI64
I01
sI67
I00
sI73
I00
sI75
I00
sI78
I01
sI80
I00
sI83
I00
sI84
I00
sI87
I00
sI98
I01
sI99
I01
sI100
I00
sI104
I01
sI111
I01
sI116
I01
sI117
I01
sI118
I01
sI119
I01
sI120
I01
sI121
I01
sI122
I01
sI123
I01
sI131
I00
sI138
I00
sI139
I00
sI149
I00
sI155
I01
sI168
I00
sI175
I00
sI181
I00
sI186
I01
sI192
I01
sI196
I01
sI201
I01
sI206
I01
sI207
I01
sI212
I00
sI220
I01
sI221
I01
sI222
I01
sI224
I01
sI228
I00
sI230
I01
sI234
I01
sI243
I01
sI245
I01
sI247
I00
sI259
I00
sI260
I00
sI269
I01
sI289
I00
sI295
I01
sI303
I00
sI308
I01
sI312
I00
sI317
I01
sI322
I01
sI324
I01
sI325
I01
sI335
I00
sI339
I00
sI343
I01
sI346
I01
sI348
I01
sI349
I00
sI356
I01
sI358
I01
sI359
I01
sI360
I01
sI396
I01
sI407
I00
sI408
I01
sI409
I00
sI411
I00
sI412
I01
sI427
I01
sI428
I01
sI430
I00
sI431
I00
sI436
I01
sI445
I01
sI458
I01
sI459
I01
sI461
I01
sI468
I00
sI477
I01
sI478
I00
sI479
I01
sI480
I01
sI481
I00
sI482
I00
sI483
I00
sI484
I00
sI486
I01
sI488
I01
sI491
I00
sI492
I01
sI498
I01
sI499
I01
sI500
I01
sI501
I00
sI508
I01
sI509
I01
sI511
I00
sI514
I01
sI519
I00
sI521
I01
sI528
I01
sI536
I01
sI545
I01
sI546
I00
sI547
I01
sI555
I00
sI561
I01
sI570
I01
sI585
I00
sI589
I00
sI593
I01
sI600
I00
sI601
I00
sI602
I01
sI604
I01
sI607
I01
sI610
I01
sI615
I01
sI619
I01
sI623
I00
sI633
I00
sI634
I01
sI635
I01
sI636
I01
sI638
I01
sI640
I01
sI646
I00
sI651
I00
sI655
I00
sI657
I00
sI660
I01
sI664
I00
sI669
I01
sI670
I01
sI671
I01
sI672
I00
sI674
I00
sI676
I01
sI678
I00
sI679
I01
sI680
I00
sI686
I01
sI693
I01
sI703
I01
sI706
I01
sI714
I01
sI715
I01
sI716
I01
sI718
I00
sI730
I01
sI736
I01
sI737
I01
sI739
I01
sI742
I00
sI743
I01
sI744
I01
sI745
I01
sI754
I01
sI755
I01
sI756
I01
sI758
I01
sI762
I01
sI763
I01
sI766
I00
sI775
I00
sI788
I01
sI790
I01
sI794
I01
sI795
I01
sI801
I01
sI803
I01
sI829
I01
sI834
I00
sI835
I01
sI841
I01
sI843
I01
sI846
I01
sI849
I00
sI855
I01
sI861
I00
sI869
I00
sI876
I01
sI901
I00
sI905
I01
sI906
I01
sI915
I01
sI919
I01
sI921
I00
sI924
I01
sI926
I01
sI927
I00
sI932
I01
sI934
I01
sI935
I01
sI942
I01
sI943
I00
sI948
I01
sI957
I01
sI959
I01
sI975
I00
sI984
I01
sI986
I00
sI989
I00
sI993
I01
sI1000
I01
sI1006
I01
sI1014
I01
sI1021
I01
sI1022
I00
sI1024
I00
sI1025
I01
sI1029
I01
sI1031
I01
sI1032
I01
sI1034
I01
sI1037
I01
sI1040
I01
sI1041
I01
sI1043
I01
sI1058
I01
sI1068
I01
sI1074
I01
sI1075
I00
sI1079
I01
sI1095
I01
sI1096
I01
sI1102
I01
sI1104
I00
sI1108
I01
sI1111
I00
sI1115
I01
sI1118
I01
sI1119
I01
sI1132
I01
sI1136
I01
sI1143
I01
sI1144
I01
sI1145
I00
sI1156
I00
sI1162
I00
sI1173
I01
sI1175
I01
sI1179
I01
sI1182
I01
sI1183
I01
sI1187
I01
sI1190
I01
sI1197
I01
sI1202
I01
sI1205
I00
sI1209
I01
sI1210
I01
sI1211
I01
sI1212
I01
sI1214
I00
sI1221
I01
sI1222
I00
sI1223
I00
sI1224
I00
sI1230
I00
sI1242
I01
sI1245
I00
sI1249
I00
sI1250
I00
sI1256
I01
sI1258
I00
sI1267
I00
sI1276
I00
sI1278
I01
sI1281
I01
sI1285
I00
sI1295
I01
sI1307
I01
sI1310
I01
sI1311
I01
sI1312
I01
sI1313
I01
sI1314
I01
sI1315
I01
sI1321
I00
sI1322
I00
sI1324
I01
sI1326
I00
sI1327
I01
sI1333
I00
sI1337
I01
sI1338
I00
sI1340
I01
sI1341
I01
sI1343
I01
sI1346
I00
sI1347
I01
sI1353
I00
sI1355
I01
sI1356
I01
sI1361
I01
sI1362
I01
sI1365
I01
sI1370
I01
sI1375
I00
sI1379
I00
sI1384
I00
sI1390
I01
sI1392
I01
sI1401
I01
sI1404
I00
sI1412
I00
sI1413
I01
sI1416
I00
sI1440
I00
sI1442
I01
sI1443
I00
sI1444
I00
sI1447
I00
sI1455
I01
sI1456
I01
sI1457
I00
sI1458
I00
sI1464
I01
sI1468
I01
sI1473
I00
sI1474
I01
sI1482
I00
sI1484
I01
sI1489
I01
sI1501
I01
sI1502
I01
sI1510
I01
sI1511
I01
sI1521
I01
sI1524
I01
sI1525
I01
sI1530
I01
sI1533
I01
sI1538
I01
sI1541
I01
sI1547
I01
sI1562
I01
sI1565
I01
sI1566
I01
sI1569
I01
sI1570
I01
sI1582
I01
sI1583
I01
sI1592
I00
sI1595
I01
sI1598
I00
sI1604
I00
sI1605
I01
sI1609
I01
sI1611
I01
sI1612
I01
sI1618
I01
sI1619
I01
sI1620
I01
sI1630
I01
sI1635
I01
sI1638
I01
sI1647
I01
sI1648
I01
sI1649
I01
sI1651
I01
sI1653
I01
sI1654
I00
sI1658
I01
sI1659
I01
sI1663
I00
sI1672
I01
sI1673
I01
sI1674
I00
sI1676
I01
sI1679
I01
sI1684
I01
sI1685
I01
sI1686
I01
sI1687
I01
sI1689
I01
sI1690
I01
sI1692
I01
sI1698
I01
sI1701
I00
sI1703
I01
sI1709
I00
sI1714
I01
sI1715
I00
sI1716
I01
sI1717
I01
sI1722
I01
sI1725
I00
sI1726
I00
sI1727
I00
sI1730
I01
sI1732
I01
sI1742
I00
sI1748
I01
sI1767
I01
sI1769
I01
sI1771
I00
sI1772
I01
sI1774
I01
sI1785
I01
sI1786
I01
sI1793
I01
sI1794
I01
sI1796
I00
sI1797
I01
sI1802
I01
sI1809
I00
sI1813
I01
sI1814
I01
sI1817
I00
sI1822
I01
sI1831
I01
sI1835
I00
sI1844
I00
sI1845
I01
sI1852
I00
sI1855
I01
sI1859
I01
sI1860
I00
sI1883
I01
sI1891
I01
sI1898
I01
sI1899
I01
sI1902
I01
sI1903
I01
sI1909
I01
sI1928
I01
sI1937
I01
sI1938
I01
sI1941
I00
sI1942
I00
sI1944
I01
sI1946
I01
sI1948
I01
sI1954
I00
sI1957
I01
sI1959
I01
sI1960
I00
sI1961
I01
sI1962
I01
sI1963
I01
sI1964
I00
sI1965
I01
sI1966
I01
sI1969
I01
sI1972
I01
sI1973
I01
sI1976
I01
sI1980
I00
sI1984
I00
sI1986
I00
sI1994
I01
sI2000
I01
sI2001
I01
sI2003
I01
sI2005
I01
sI2007
I01
sI2008
I00
sI2010
I00
sI2017
I00
sI2019
I00
sI2028
I01
sI2034
I00
sI2037
I01
sI2040
I00
sI2042
I01
sI2045
I01
sI2049
I01
sI2051
I01
sI2053
I00
sI2055
I01
sI2056
I00
sI2062
I00
sI2072
I01
sI2073
I01
sI2074
I00
sI2075
I01
sI2084
I01
sI2089
I00
sI2092
I01
sI2096
I01
sI2097
I00
sI2098
I01
sI2101
I00
sI2104
I00
sI2107
I00
sI2111
I00
sI2112
I00
sI2115
I00
sI2116
I00
sI2120
I00
sI2124
I00
sI2132
I00
sI2134
I00
sI2135
I01
sI2137
I00
sI2139
I01
sI2140
I01
sI2144
I00
sI2146
I01
sI2149
I01
sI2158
I00
sI2161
I00
sI2162
I00
sI2163
I01
sI2166
I00
sI2167
I01
sI2171
I01
sI2173
I00
sI2174
I01
sI2179
I01
sI2182
I00
sI2199
I01
sI2203
I00
sI2204
I01
sI2205
I01
sI2206
I01
sI2207
I01
sI2215
I01
sI2217
I01
sI2223
I01
sI2231
I01
sI2233
I00
sI2235
I01
sI2243
I01
sI2249
I01
sI2250
I01
sI2253
I01
sI2254
I01
sI2255
I01
sI2256
I01
sI2263
I00
sI2269
I00
sI2277
I01
sI2280
I01
sI2281
I01
sI2285
I01
sI2291
I01
sI2293
I00
sI2303
I00
sI2307
I00
sI2308
I01
sI2312
I01
sI2328
I01
sI2329
I01
sI2331
I00
sI2335
I01
sI2345
I01
sI2347
I01
sI2354
I01
sI2364
I01
sI2378
I01
sI2409
I01
sI2411
I00
sI2413
I00
sI2415
I00
sI2422
I01
sI2429
I01
sI2430
I01
sI2436
I01
sI2441
I00
sI2446
I00
sI2448
I01
sI2450
I01
sI2452
I00
sI2453
I01
sI2463
I00
sI2465
I01
sI2466
I01
sI2467
I01
sI2468
I01
sI2469
I00
sI2470
I01
sI2473
I01
sI2474
I01
sI2475
I01
sI2476
I01
sI2483
I00
sI2488
I01
sI2489
I00
sI2491
I00
sI2493
I00
sI2506
I01
sI2508
I00
sI2514
I01
sI2515
I01
sI2517
I00
sI2518
I01
sI2519
I01
sI2520
I01
sI2521
I01
sI2523
I01
sI2524
I01
sI2535
I01
sI2548
I01
sI2554
I01
sI2558
I01
sI2559
I01
sI2560
I00
sI2565
I01
sI2571
I01
sI2573
I00
sI2574
I01
sI2576
I01
sI2577
I01
sI2578
I01
sI2581
I01
sI2582
I00
sI2586
I01
sI2587
I01
sI2589
I01
sI2591
I01
sI2594
I01
sI2596
I01
sI2601
I01
sI2606
I01
sI2607
I01
sI2608
I01
sI2611
I01
sI2612
I01
sI2613
I01
sI2616
I01
sI2617
I01
sI2626
I00
sI2628
I00
sI2629
I00
sI2637
I01
sI2638
I00
sI2642
I01
sI2644
I00
sI2646
I00
sI2647
I01
sI2648
I01
sI2661
I00
sI2665
I01
sI2671
I01
sI2682
I00
sI2686
I01
sI2690
I01
sI2692
I01
sI2697
I01
sI2714
I01
sI2715
I01
sI2716
I00
sI2728
I00
sI2731
I00
sI2734
I00
sI2740
I01
sI2749
I01
sI2751
I01
sI2752
I01
sI2753
I01
sI2754
I00
sI2755
I01
sI2758
I00
sI2759
I01
sI2762
I01
sI2765
I01
sI2769
I00
sI2772
I00
sI2783
I01
sI2786
I01
sI2789
I01
sI2792
I00
sI2800
I01
sI2801
I01
sI2802
I01
sI2809
I01
sI2811
I00
sI2813
I01
sI2818
I00
sI2822
I01
sI2824
I01
sI2825
I00
sI2827
I01
sI2828
I01
sI2829
I01
sI2830
I01
sI2831
I00
sI2832
I01
sI2833
I01
sI2839
I00
sI2841
I01
sI2849
I00
sI2850
I00
sI2853
I01
sI2861
I01
sI2862
I00
sI2866
I01
sI2872
I00
sI2873
I00
sI2877
I01
sI2880
I01
sI2883
I01
sI2884
I01
sI2885
I01
sI2892
I01
sI2898
I01
sI2902
I01
sI2922
I00
sI2935
I01
sI2943
I01
sI2945
I01
sI2949
I00
sI2952
I01
sI2955
I00
sI2957
I00
sI2962
I01
sI2965
I01
sI2972
I00
sI2974
I01
sI2977
I00
sI2983
I00
sI2984
I01
sI2989
I01
sI2993
I01
sI2999
I01
sI3010
I01
sI3011
I01
sI3013
I01
sI3016
I01
sI3017
I01
sI3018
I01
sI3021
I00
sI3023
I01
sI3024
I01
sI3025
I01
sI3027
I00
sI3029
I01
sI3036
I01
sI3037
I01
sI3046
I00
sI3047
I00
sI3053
I01
sI3054
I00
sI3055
I00
sI3056
I00
sI3070
I01
sI3071
I00
sI3081
I00
sI3085
I01
sI3090
I01
sI3091
I00
sI3092
I01
sI3094
I01
sI3095
I01
sI3098
I01
sI3107
I00
sI3131
I01
sI3141
I01
sI3158
I01
sI3161
I01
sI3163
I01
sI3164
I01
sI3165
I01
sI3168
I01
sI3172
I01
sI3176
I00
sI3184
I00
sI3190
I01
sI3191
I00
sI3194
I01
sI3197
I01
sI3200
I00
sI3203
I01
sI3204
I01
sI3205
I00
sI3206
I01
sI3210
I00
sI3214
I01
sI3230
I01
sI3231
I00
sI3232
I01
sI3235
I01
sI3249
I00
sI3250
I01
sI3268
I01
sI3269
I01
sI3276
I01
sI3277
I00
sI3278
I00
sI3283
I01
sI3284
I01
sI3287
I01
sI3295
I01
sI3298
I00
sI3299
I01
sI3300
I01
sI3313
I01
sI3323
I01
sI3333
I00
sI3335
I00
sI3343
I00
sI3345
I01
sI3346
I01
sI3347
I00
sI3350
I01
sI3357
I00
sI3372
I00
sI3373
I01
sI3388
I00
sI3394
I01
sI3395
I01
sI3400
I01
sI3401
I01
sI3411
I00
sI3412
I01
sI3418
I00
sI3419
I01
sI3420
I01
sI3429
I01
sI3444
I01
sI3445
I01
sI3450
I01
sI3451
I01
sI3452
I00
sI3473
I00
sI3474
I00
sI3475
I01
sI3489
I01
sI3493
I01
sI3501
I01
sI3502
I01
sI3503
I01
sI3505
I01
sI3526
I01
sI3534
I00
sI3542
I01
sI3550
I01
sI3552
I00
sI3554
I01
sI3562
I01
sI3567
I01
sI3568
I00
sI3573
I00
sI3584
I01
sI3585
I01
sI3586
I00
sI3587
I01
sI3588
I00
sI3592
I00
sI3594
I00
sI3605
I01
sI3606
I01
sI3611
I01
sI3612
I01
sI3613
I01
sI3615
I01
sI3619
I00
sI3622
I00
sI3637
I00
sI3642
I00
sI3643
I01
sI3645
I00
sI3652
I01
sI3659
I01
sI3661
I00
sI3674
I01
sI3676
I01
sI3678
I01
sI3686
I01
sI3690
I01
sI3694
I01
sI3695
I00
sI3696
I00
sI3701
I01
sI3703
I01
sI3704
I01
sI3706
I01
sI3708
I01
sI3710
I01
sI3711
I01
sI3713
I00
sI3717
I01
sI3729
I01
sI3732
I00
sI3741
I01
sI3742
I01
sI3743
I01
sI3746
I01
sI3747
I01
sI3750
I01
sI3753
I00
sI3758
I01
sI3761
I01
sI3763
I01
sI3771
I01
sI3772
I01
sI3773
I01
sI3775
I00
sI3777
I00
sI3779
I00
sI3783
I01
sI3784
I00
sI3793
I01
sI3795
I01
sI3796
I01
sI3803
I01
sI3805
I01
sI3813
I01
sI3817
I00
sI3819
I00
sI3820
I00
sI3823
I01
sI3825
I01
sI3831
I01
sI3832
I01
sI3846
I01
sI3850
I00
sI3864
I01
sI3866
I01
sI3870
I00
sI3872
I00
sI3874
I00
sI3876
I00
sI3881
I01
sI3884
I00
sI3887
I01
sI3888
I00
sI3890
I00
sI3891
I00
sI3895
I01
sI3896
I01
sI3913
I00
sI3927
I01
sI3928
I00
sI3932
I00
sI3944
I01
sI3947
I00
sI3949
I00
sI3952
I01
sI3956
I00
sI3959
I01
sI3966
I01
sI3968
I00
sI3970
I00
sI3971
I00
sI3972
I00
sI3974
I01
sI3981
I01
sI3986
I00
sI3987
I00
sI3988
I00
sI3990
I01
sI3992
I00
sI3993
I00
sI3997
I01
sI4002
I01
sI4003
I00
sI4007
I01
sI4013
I01
sI4015
I00
sI4020
I00
sI4021
I00
sI4023
I01
sI4033
I01
sI4042
I01
sI4045
I00
sI4051
I00
sI4055
I00
sI4056
I01
sI4058
I00
sI4080
I01
sI4082
I01
sI4088
I01
sI4090
I01
sI4091
I00
sI4097
I00
sI4103
I01
sI4104
I01
sI4109
I00
sI4110
I01
sI4112
I01
sI4113
I01
sI4115
I01
sI4116
I01
sI4117
I01
sI4118
I00
sI4124
I01
sI4126
I01
sI4127
I01
sI4128
I01
sI4130
I01
sI4131
I01
sI4133
I01
sI4134
I01
sI4139
I01
sI4152
I01
sI4154
I01
sI4158
I00
sI4159
I00
sI4160
I01
sI4173
I01
sI4176
I00
sI4178
I00
sI4182
I01
sI4187
I00
sI4193
I00
sI4207
I00
sI4211
I01
sI4215
I01
sI4217
I00
sI4220
I01
sI4224
I01
sI4225
I01
sI4227
I01
sI4266
I01
sI4270
I00
sI4271
I01
sI4273
I01
sI4274
I01
sI4280
I01
sI4281
I01
sI4287
I00
sI4290
I01
sI4291
I01
sI4292
I01
sI4294
I01
sI4295
I00
sI4297
I01
sI4298
I01
sI4299
I01
sI4302
I01
sI4305
I01
sI4307
I01
sI4310
I00
sI4311
I01
sI4312
I01
sI4313
I00
sI4315
I01
sI4318
I01
sI4320
I01
sI4327
I01
sI4328
I01
sI4329
I00
sI4330
I01
sI4333
I01
sI4341
I01
sI4345
I01
sI4347
I01
sI4352
I00
sI4357
I01
sI4360
I00
sI4363
I01
sI4365
I01
sI4370
I01
sI4371
I01
sI4374
I01
sI4376
I01
sI4381
I01
sI4386
I00
sI4393
I00
sI4397
I01
sI4398
I00
sI4400
I01
sI4402
I00
sI4413
I01
sI4414
I00
sI4418
I00
sI4420
I01
sI4423
I00
sI4426
I00
sI4428
I00
sI4430
I01
sI4431
I01
sI4434
I00
sI4436
I01
sI4441
I01
sI4443
I01
sI4451
I01
sI4453
I01
sI4454
I01
sI4456
I01
sI4469
I01
sI4477
I00
sI4483
I01
sI4484
I01
sI4486
I01
sI4494
I00
sI4496
I01
sI4498
I01
sI4516
I00
sI4522
I01
sI4527
I01
sI4528
I01
sI4534
I01
sI4537
I00
sI4538
I01
sI4542
I00
sI4543
I00
sI4544
I01
sI4546
I01
sI4547
I01
sI4551
I01
sI4553
I01
sI4555
I01
sI4556
I01
sI4557
I01
sI4558
I01
sI4562
I00
sI4580
I01
sI4586
I00
sI4596
I01
sI4599
I01
sI4605
I01
sI4614
I01
sI4617
I00
sI4618
I01
sI4619
I01
sI4620
I01
sI4627
I00
sI4635
I01
sI4637
I01
sI4640
I01
sI4642
I00
sI4647
I01
sI4651
I01
sI4655
I00
sI4657
I00
sI4665
I01
sI4667
I01
sI4669
I01
sI4682
I00
sI4684
I01
sI4685
I01
sI4698
I00
sI4706
I00
sI4715
I01
sI4737
I00
sI4738
I00
sI4739
I00
sI4743
I01
sI4745
I00
sI4746
I00
sI4760
I00
sI4769
I01
sI4771
I01
sI4772
I00
sI4785
I01
sI4787
I00
sI4790
I01
sI4791
I00
sI4796
I01
sI4799
I01
sI4804
I00
sI4805
I01
sI4809
I01
sI4811
I01
sI4813
I01
sI4815
I01
sI4817
I00
sI4818
I01
sI4819
I01
sI4822
I01
sI4824
I00
sI4827
I00
sI4828
I01
sI4836
I01
sI4837
I01
sI4846
I01
sI4854
I01
sI4862
I00
sI4880
I01
sI4885
I01
sI4887
I01
sI4889
I00
sI4894
I01
sI4904
I00
sI4905
I01
sI4906
I00
sI4914
I01
sI4917
I01
sI4922
I01
sI4924
I01
sI4929
I01
sI4933
I00
sI4935
I01
sI4936
I01
sI4939
I00
sI4948
I01
sI4950
I01
sI4954
I01
sI4961
I01
sI4962
I01
sI4972
I01
sI4979
I01
sI4980
I01
sI4981
I01
sI4985
I01
sI4986
I00
sI4987
I00
sI5002
I01
sI5003
I01
sI5011
I00
sI5013
I00
sI5014
I01
sI5015
I01
sI5025
I01
sI5031
I00
sI5039
I01
sI5040
I00
sI5041
I00
sI5052
I01
sI5055
I01
sI5057
I00
sI5064
I01
sI5076
I00
sI5086
I01
sI5088
I01
sI5091
I01
sI5093
I01
sI5096
I01
sI5101
I01
sI5103
I01
sI5128
I01
sI5150
I00
sI5159
I01
sI5162
I01
sI5170
I01
sI5173
I00
sI5175
I01
sI5183
I00
sI5205
I01
sI5210
I01
sI5216
I01
sI5219
I01
sI5225
I01
sI5226
I01
sI5231
I01
sI5236
I01
sI5242
I01
sI5243
I01
sI5257
I01
sI5275
I01
sI5283
I01
sI5289
I01
sI5295
I01
sI5298
I01
sI5305
I00
sI5311
I01
sI5339
I01
sI5341
I01
sI5347
I01
sI5352
I00
sI5356
I01
sI5359
I01
sI5360
I01
sI5361
I00
sI5370
I01
sI5372
I01
sI5373
I00
sI5374
I01
sI5377
I01
sI5383
I00
sI5388
I01
sI5390
I00
sI5391
I01
sI5395
I00
sI5396
I00
sI5398
I01
sI5402
I01
sI5407
I01
sI5410
I01
sI5413
I01
sI5419
I01
sI5422
I00
sI5431
I01
sI5448
I01
sI5450
I01
sI5451
I00
sI5454
I01
sI5455
I00
sI5456
I00
sI5457
I01
sI5458
I01
sI5465
I01
sI5467
I01
sI5484
I00
sI5488
I01
sI5493
I01
sI5498
I01
sI5502
I01
sI5506
I01
sI5517
I01
sI5542
I01
sI5543
I01
sI5545
I01
sI5547
I01
sI5548
I01
sI5549
I01
sI5551
I00
sI5552
I00
sI5554
I01
sI5556
I01
sI5560
I01
sI5565
I01
sI5570
I00
sI5577
I01
sI5587
I00
sI5588
I01
sI5604
I01
sI5609
I00
sI5624
I00
sI5625
I01
sI5626
I01
sI5630
I01
sI5643
I01
sI5650
I01
sI5651
I01
sI5658
I01
sI5661
I00
sI5674
I01
sI5681
I01
sI5701
I01
sI5704
I01
sI5725
I01
sI5727
I01
sI5733
I00
sI5734
I01
sI5748
I00
sI5750
I01
sI5751
I01
sI5754
I01
sI5755
I01
sI5756
I01
sI5762
I00
sI5769
I01
sI5772
I01
sI5776
I00
sI5777
I00
sI5779
I01
sI5783
I01
sI5790
I00
sI5793
I01
sI5803
I00
sI5804
I01
sI5807
I01
sI5825
I01
sI5832
I01
sI5833
I01
sI5838
I01
sI5839
I01
sI5840
I01
sI5843
I00
sI5850
I01
sI5857
I01
sI5859
I01
sI5862
I01
sI5863
I01
sI5872
I01
sI5873
I00
sI5877
I01
sI5894
I00
sI5897
I01
sI5900
I01
sI5908
I01
sI5912
I01
sI5915
I01
sI5926
I01
sI5930
I01
sI5931
I01
sI5932
I01
sI5935
I01
sI5936
I01
sI5944
I01
sI5949
I01
sI5950
I01
sI5953
I01
sI5957
I01
sI5970
I01
sI5973
I01
sI5979
I01
sI5982
I01
sI5985
I01
sI6007
I01
sI6018
I01
sI6029
I00
sI6041
I00
sI6050
I01
sI6058
I01
sI6060
I01
sI6074
I01
sI6080
I00
sI6081
I01
sI6090
I01
sI6093
I01
sI6096
I01
sI6097
I00
sI6098
I00
sI6101
I01
sI6102
I01
sI6111
I00
sI6112
I00
sI6113
I01
sI6116
I01
sI6126
I01
sI6136
I01
sI6137
I01
sI6140
I01
sI6142
I01
sI6145
I01
sI6152
I01
sI6156
I01
sI6157
I01
sI6160
I01
sI6161
I01
sI6164
I00
sI6166
I00
sI6172
I00
sI6173
I00
sI6177
I00
sI6187
I01
sI6188
I01
sI6190
I01
sI6191
I01
sI6192
I01
sI6193
I01
sI6197
I01
sI6202
I01
sI6205
I01
sI6209
I01
sI6215
I00
sI6228
I00
sI6230
I01
sI6239
I00
sI6240
I00
sI6254
I00
sI6255
I01
sI6257
I00
sI6260
I01
sI6268
I01
sI6272
I01
sI6283
I00
sI6284
I00
sI6285
I01
sI6290
I01
sI6293
I00
sI6296
I01
sI6306
I01
sI6309
I01
sI6310
I01
sI6313
I00
sI6332
I01
sI6333
I01
sI6335
I01
sI6336
I01
sI6340
I01
sI6342
I01
sI6343
I00
sI6345
I00
sI6346
I01
sI6350
I01
sI6358
I01
sI6363
I01
sI6364
I01
sI6374
I01
sI6386
I01
sI6405
I01
sI6416
I00
sI6438
I00
sI6439
I01
sI6445
I01
sI6448
I00
sI6451
I01
sI6453
I00
sI6460
I01
sI6462
I01
sI6463
I01
sI6464
I01
sI6465
I01
sI6470
I00
sI6471
I01
sI6476
I01
sI6478
I00
sI6489
I00
sI6490
I01
sI6492
I00
sI6495
I00
sI6496
I00
sI6498
I01
sI6499
I00
sI6511
I00
sI6512
I01
sI6513
I01
sI6514
I00
sI6520
I01
sI6521
I01
sI6524
I01
sI6526
I01
sI6532
I00
sI6534
I00
sI6536
I01
sI6537
I01
sI6538
I01
sI6539
I01
sI6540
I01
sI6544
I00
sI6546
I01
sI6550
I00
sI6551
I01
sI6553
I01
sI6555
I01
sI6557
I00
sI6558
I01
sI6566
I01
sI6567
I01
sI6577
I01
sI6591
I01
sI6592
I01
sI6593
I00
sI6594
I01
sI6595
I00
sI6602
I01
sI6603
I01
sI6604
I01
sI6605
I01
sI6624
I01
sI6642
I01
sI6648
I00
sI6649
I00
sI6651
I01
sI6655
I01
sI6658
I01
sI6659
I01
sI6660
I01
sI6661
I01
sI6664
I01
sI6671
I01
sI6676
I01
sI6677
I01
sI6679
I01
sI6685
I01
sI6686
I01
sI6692
I01
sI6697
I01
sI6702
I01
sI6707
I00
sI6712
I01
sI6719
I00
sI6720
I01
sI6723
I01
sI6724
I01
sI6725
I01
sI6726
I01
sI6728
I01
sI6731
I01
sI6732
I01
sI6734
I01
sI6741
I00
sI6742
I01
sI6745
I01
sI6746
I01
sI6749
I01
sI6752
I01
sI6753
I01
sI6755
I01
sI6759
I01
sI6762
I01
sI6768
I01
sI6769
I00
sI6774
I01
sI6776
I01
sI6777
I01
sI6779
I01
sI6782
I01
sI6784
I01
sI6791
I00
sI6792
I01
sI6796
I01
sI6806
I01
sI6812
I01
sI6818
I01
sI6824
I01
sI6825
I01
sI6827
I01
sI6829
I00
sI6831
I01
sI6836
I01
sI6838
I00
sI6840
I01
sI6841
I01
sI6842
I01
sI6855
I00
sI6869
I01
sI6870
I01
sI6871
I01
sI6872
I01
sI6876
I01
sI6877
I01
sI6890
I01
sI6893
I00
sI6895
I01
sI6908
I01
sI6910
I01
sI6919
I01
sI6920
I00
sI6922
I01
sI6926
I01
sI6928
I01
sI6931
I01
sI6932
I01
sI6933
I01
sI6935
I01
sI6942
I01
sI6950
I01
sI6958
I00
sI6969
I01
sI6973
I01
sI6980
I01
sI6982
I01
sI6989
I01
sI6991
I01
sI6992
I01
sI6998
I01
sI7012
I01
sI7020
I01
sI7027
I00
sI7036
I01
sI7039
I01
sI7041
I01
sI7043
I01
sI7044
I01
sI7045
I01
sI7046
I01
sI7047
I01
sI7048
I01
sI7049
I00
sI7051
I00
sI7053
I01
sI7061
I01
sI7073
I01
sI7074
I01
sI7075
I01
sI7076
I01
sI7077
I01
sI7078
I01
sI7080
I01
sI7081
I01
sI7083
I01
sI7101
I01
sI7113
I01
sI7125
I01
sI7181
I01
sI7189
I01
sI7202
I01
sI7209
I01
sI7222
I01
sI7234
I00
sI7235
I01
sI7237
I01
sI7239
I01
sI7240
I01
sI7249
I01
sI7259
I01
sI7260
I00
sI7262
I01
sI7263
I01
sI7264
I01
sI7265
I01
sI7270
I01
sI7282
I01
sI7283
I01
sI7290
I01
sI7291
I01
sI7295
I01
sI7320
I01
sI7325
I01
sI7339
I01
sI7343
I01
sI7358
I00
sI7362
I00
sI7380
I01
sI7384
I01
sI7386
I00
sI7394
I01
sI7397
I00
sI7403
I01
sI7430
I01
sI7431
I01
sI7432
I01
sI7433
I01
sI7448
I01
sI7449
I01
sI7454
I01
sI7455
I01
sI7457
I01
sI7507
I01
sI7508
I01
sI7509
I00
sI7520
I00
sI7525
I01
sI7567
I01
sI7590
I01
sI7594
I01
sI7598
I01
sI7599
I01
sI7603
I01
sI7606
I01
sI7608
I01
sI7619
I01
sI7636
I00
sI7638
I01
sI7641
I01
sI7643
I00
sI7652
I01
sI7681
I01
sI7682
I01
sI7692
I00
sI7697
I01
sI7699
I01
sI7700
I01
sI7705
I00
sI7713
I00
sI7718
I00
sI7724
I00
sI7727
I00
sI7733
I01
sI7738
I01
sI7739
I01
sI7741
I01
sI7746
I01
sI7761
I01
sI7762
I01
sI7771
I01
sI7778
I00
sI7783
I01
sI7786
I00
sI7790
I01
sI7791
I01
sI7802
I01
sI7803
I01
s.