(dp1
S'STORMTXT'
p2
I3475
sS'YRVET1'
p3
I3161
sS'YRVET2'
p4
I3162
sS'YRVET3'
p5
I3163
sS'YRVET4'
p6
I3164
sS'YRVET5'
p7
I3165
sS'RELMOST'
p8
I4138
sS'EFFORT'
p9
I2135
sS'BALLOT'
p10
I5528
sS'AGEWED'
p11
I18
sS'LOANEDTO'
p12
I1873
sS'OTHREL3'
p13
I5278
sS'OTHREL2'
p14
I5277
sS'OTHREL1'
p15
I5276
sS'COMMUN10'
p16
I5444
sS'DRIVLESS'
p17
I4729
sS'MEDSCI'
p18
I3415
sS'DATEFRST'
p19
I1483
sS'TRTDEMS'
p20
I1416
sS'VIGGRP'
p21
I2024
sS'NOSMOKE'
p22
I4036
sS'ACQWKNO'
p23
I3651
sS'AMCHRSTN'
p24
I4769
sS'WORKFAST'
p25
I2793
sS'RELHOME'
p26
I1833
sS'GRPNEI'
p27
I4192
sS'ADFAM'
p28
I2942
sS'RELIG16'
p29
I325
sS'LIVEBLKS'
p30
I1198
sS'DECBIBLE'
p31
I1068
sS'MAVISIT1'
p32
I4174
sS'GENDER2'
p33
I5294
sS'WHERE4'
p34
I5310
sS'KDOCC80'
p35
I1558
sS'EQWLTHY'
p36
I228
sS'MHSOCIAL'
p37
I3720
sS'WHERE1'
p38
I5292
sS'ELDHELP'
p39
I4450
sS'GENDER7'
p40
I5324
sS'WHERE3'
p41
I5304
sS'WHERE2'
p42
I5298
sS'ACQVAWHT'
p43
I3644
sS'DRAFTGAY'
p44
I792
sS'HRSOTH'
p45
I1946
sS'BILINGED'
p46
I1624
sS'INFOCOL'
p47
I4753
sS'PAYTIME'
p48
I4552
sS'USSAT'
p49
I1807
sS'HLPMINR'
p50
I744
sS'TAXPOOR'
p51
I4284
sS'SPVTRFAIR'
p52
I2852
sS'WOJOBYRS'
p53
I2175
sS'RAISEHRD'
p54
I1334
sS'OUTOFBIZ'
p55
I1250
sS'ALLOWCOM'
p56
I4948
sS'PASTUP'
p57
I1659
sS'SPHHWORK'
p58
I4416
sS'LOCTRUST'
p59
I1005
sS'AFFACT'
p60
I1233
sS'CONDOM'
p61
I5029
sS'UNEMP5'
p62
I723
sS'PADOTPEO'
p63
I123
sS'RELIGID'
p64
I5280
sS'OTHREASN'
p65
I4840
sS'TVINUIT'
p66
I3423
sS'COWRKHLP'
p67
I2827
sS'DISCAFF'
p68
I1234
sS'FNDJOB4'
p69
I1262
sS'YRPOLIT3'
p70
I3168
sS'YRPOLIT2'
p71
I3167
sS'YRPOLIT1'
p72
I3166
sS'ONEKID'
p73
I4356
sS'ACQNHUNE'
p74
I3632
sS'FNDJOB7'
p75
I1265
sS'RELINFSC'
p76
I3376
sS'MONTHLY'
p77
I2181
sS'GODLVOTH'
p78
I3095
sS'LETIN'
p79
I1628
sS'SPRETIRE'
p80
I4061
sS'PARTNERS'
p81
I5010
sS'MAWRKSLF'
p82
I45
sS'LIVEWHTS'
p83
I1203
sS'ABNOMORE'
p84
I585
sS'DINNER'
p85
I4402
sS'YRPROF3'
p86
I3206
sS'YRPROF2'
p87
I3205
sS'YRPROF1'
p88
I3204
sS'LAWINFO'
p89
I266
sS'YRPROF6'
p90
I3209
sS'YRPROF5'
p91
I3208
sS'YRPROF4'
p92
I3207
sS'TIMEKID3'
p93
I2658
sS'TIMEKID2'
p94
I2657
sS'TIMEKID1'
p95
I2656
sS'TIMEKID4'
p96
I2659
sS'SPJEW16'
p97
I341
sS'ENGUNITE'
p98
I2314
sS'BOYCOTT'
p99
I2915
sS'FEHIRE'
p100
I1714
sS'RAGEEMP'
p101
I4515
sS'GOVCARE'
p102
I226
sS'PAYSALES'
p103
I4255
sS'CONSCHLS'
p104
I4601
sS'TERMPAIN'
p105
I2266
sS'PEOPGOVT'
p106
I4743
sS'SCIENTAL'
p107
I3516
sS'HELPBLK'
p108
I830
sS'GODCHNGE'
p109
I4607
sS'HEALTH12'
p110
I2438
sS'HLTH14'
p111
I5106
sS'ETHSPKNO'
p112
I1621
sS'YRHOBBY1'
p113
I3188
sS'HLTH10'
p114
I5102
sS'YRHOBBY3'
p115
I3190
sS'YRHOBBY2'
p116
I3189
sS'RUSHED'
p117
I757
sS'UNRESPCT'
p118
I4497
sS'ARTISTS'
p119
I2142
sS'EXPDESGN'
p120
I3335
sS'OPWLTH'
p121
I4221
sS'VIGLABEL'
p122
I2015
sS'ACQFMGO'
p123
I3656
sS'THREKIDS'
p124
I4358
sS'YRFARM1'
p125
I3197
sS'KD2JWOTH'
p126
I3812
sS'IF80WHO'
p127
I140
sS'POLGREED'
p128
I4874
sS'BOREDOM'
p129
I4531
sS'CONBIZ'
p130
I4597
sS'PESSIMST'
p131
I3047
sS'ETHNUM'
p132
I5222
sS'ADPSY'
p133
I2950
sS'PARCIT'
p134
I4812
sS'POLSFAIR'
p135
I4907
sS'RELFIXER'
p136
I1864
sS'KDREL6'
p137
I1532
sS'DEGREE'
p138
I57
sS'CONCLASS'
p139
I4287
sS'GOVTPOW'
p140
I4069
sS'MTPOLIT1'
p141
I3243
sS'MTPOLIT3'
p142
I3245
sS'MTPOLIT2'
p143
I3244
sS'ALLHRT'
p144
I1703
sS'SONTIME'
p145
I4129
sS'RACE'
p146
I69
sS'RACNOBUY'
p147
I391
sS'IMMNOJOB'
p148
I2326
sS'NEWSFROM'
p149
I3319
sS'UNPOWER'
p150
I1248
sS'BASEOFOP'
p151
I1357
sS'COMPWAGE'
p152
I3558
sS'NUMOWN'
p153
I3783
sS'CONTITL'
p154
I2289
sS'TERMPAY'
p155
I2267
sS'TRTMARIA'
p156
I1444
sS'TRDUNION'
p157
I2809
sS'IF72WHO'
p158
I134
sS'CHNGRBRN'
p159
I3071
sS'FAMASNS'
p160
I2282
sS'USCLASS7'
p161
I223
sS'SUPERVIS'
p162
I4540
sS'GENECANY'
p163
I1244
sS'GENECANX'
p164
I1243
sS'PLANWRK'
p165
I4535
sS'NUMHOME'
p166
I2568
sS'DOC18A'
p167
I2986
sS'CHNGEORG'
p168
I1331
sS'MTLIT4'
p169
I3280
sS'ANGRYWHY'
p170
I1755
sS'DOINGDYS'
p171
I2173
sS'WHYPOOR2'
p172
I1154
sS'FRDDYNAM'
p173
I1433
sS'OTHLOBBY'
p174
I1016
sS'OTHYRS'
p175
I2159
sS'FSTSPYR'
p176
I1493
sS'HLPSOC'
p177
I4492
sS'NATURGOD'
p178
I4692
sS'CHEMBAL'
p179
I2927
sS'GRNDEMO'
p180
I4733
sS'STRESS'
p181
I4530
sS'CATHID'
p182
I5285
sS'BLESSNGS'
p183
I3096
sS'AIDAVG'
p184
I4026
sS'NATSPAC'
p185
I165
sS'RIFLE'
p186
I665
sS'FETHINK'
p187
I580
sS'WLTHWHTS'
p188
I1161
sS'WORKFOR'
p189
I2857
sS'POLACTVE'
p190
I4880
sS'NEXTDOOR'
p191
I2938
sS'MONYOUTH'
p192
I1927
sS'HSMATH'
p193
I3356
sS'ACTYOUTH'
p194
I985
sS'FUTRUP'
p195
I1662
sS'ABIMP'
p196
I598
sS'CLRGSEX1'
p197
I3947
sS'CLRGSEX2'
p198
I3948
sS'CLRGSEX3'
p199
I3949
sS'PUTSOFF'
p200
I2968
sS'MENBEN'
p201
I1695
sS'JOBTVRAD'
p202
I2634
sS'GIVCABNT'
p203
I4269
sS'SCIMODE'
p204
I3452
sS'REQINFO'
p205
I1889
sS'INFONEWS'
p206
I4751
sS'MONWORK'
p207
I1925
sS'WORSHIP'
p208
I1148
sS'MHUPDOWN'
p209
I3716
sS'INTSEX'
p210
I5521
sS'SELFLESS'
p211
I2894
sS'ENGEARN'
p212
I3540
sS'SCIIMP2'
p213
I3402
sS'KIDNOW2'
p214
I3917
sS'KIDNOW1'
p215
I3916
sS'RACWRITE'
p216
I403
sS'ABPOOR1'
p217
I4591
sS'TRTJANS'
p218
I1428
sS'IMPMAR'
p219
I1445
sS'CARRIED'
p220
I2891
sS'GETLANG'
p221
I2306
sS'COMASN'
p222
I2344
sS'MARJEW'
p223
I1204
sS'ACTPROF'
p224
I992
sS'PRIDEORG'
p225
I4564
sS'BUYTHNGS'
p226
I4421
sS'MINFOUR'
p227
I5157
sS'RACSEG'
p228
I369
sS'LASTYRWK'
p229
I3892
sS'CARPRIVT'
p230
I1813
sS'LIVENO'
p231
I1201
sS'CATDRCTY'
p232
I2409
sS'LIVE4'
p233
I5145
sS'LIVE3'
p234
I5144
sS'LIVE2'
p235
I5143
sS'LIVE1'
p236
I5142
sS'STOPRNDM'
p237
I4902
sS'SIBINLAW'
p238
I4179
sS'CREATOR'
p239
I310
sS'KIDFINBU'
p240
I4438
sS'FRNDOTH1'
p241
I1101
sS'POLFORMS'
p242
I2464
sS'ADVOFRND'
p243
I2526
sS'WHENHS'
p244
I65
sS'JOBCNTCT'
p245
I2631
sS'RESTACT'
p246
I296
sS'WATERFAM'
p247
I4720
sS'RACSCHOL'
p248
I377
sS'ANGRLAST'
p249
I1782
sS'COMMUN'
p250
I5443
sS'ACQSHAWN'
p251
I3576
sS'RACECEN1'
p252
I5232
sS'RACECEN3'
p253
I5234
sS'RACECEN2'
p254
I5233
sS'TEENPILL'
p255
I607
sS'SATJOB'
p256
I531
sS'COWRKFRD'
p257
I4182
sS'PROUDDEM'
p258
I4778
sS'NOBILING'
p259
I2313
sS'WHOELSE2'
p260
I5505
sS'DEMWORKS'
p261
I4101
sS'MASEI'
p262
I5437
sS'ACQASIAN'
p263
I3596
sS'NATFARE'
p264
I175
sS'ROLEPA'
p265
I5060
sS'JAZZ'
p266
I1378
sS'NATFAREZ'
p267
I204
sS'NATFAREY'
p268
I193
sS'BRKDTIME'
p269
I2093
sS'SIZE'
p270
I109
sS'DRAFTPAR'
p271
I791
sS'FEHLPJOB'
p272
I4013
sS'HHCLEAN1'
p273
I4452
sS'SPDEN16'
p274
I339
sS'SCIINFGO'
p275
I3511
sS'SPFOODKD'
p276
I5087
sS'GIVLAW'
p277
I4270
sS'SPHEALER'
p278
I2033
sS'MHRAISED'
p279
I3711
sS'GRASS'
p280
I269
sS'HELPENV'
p281
I4899
sS'FAMRNK'
p282
I4318
sS'GETAHEAD'
p283
I568
sS'GETAHEAY'
p284
I3678
sS'SCIENTGO'
p285
I3518
sS'STATEART'
p286
I2152
sS'FEKIDS3'
p287
I1710
sS'FEKIDS2'
p288
I1709
sS'FEKIDS1'
p289
I1708
sS'FEKIDS5'
p290
I1712
sS'FEKIDS4'
p291
I1711
sS'EVSMOKE'
p292
I519
sS'MAFUND'
p293
I1045
sS'INCOM16'
p294
I80
sS'TRAVELGN'
p295
I2551
sS'INTRWGHT'
p296
I3057
sS'SBPRES80'
p297
I1605
sS'HEALER'
p298
I316
sS'ETHTRADS'
p299
I2746
sS'FEAR'
p300
I658
sS'SERVEGRP'
p301
I998
sS'SOLARREV'
p302
I3349
sS'AMPROUD'
p303
I1615
sS'VIGVERMY'
p304
I3686
sS'EMOTFAM'
p305
I2739
sS'TALKPOL1'
p306
I941
sS'TALKPOL3'
p307
I943
sS'TALKPOL2'
p308
I942
sS'RACOPWIL'
p309
I397
sS'WHEREWRK'
p310
I1355
sS'VETAID'
p311
I811
sS'FEWORK'
p312
I572
sS'DIVLAW'
p313
I610
sS'TOTPOL'
p314
I1971
sS'KNWBLK'
p315
I2348
sS'ROLEMA'
p316
I5059
sS'VERSION'
p317
I5529
sS'RVISITOR'
p318
I5392
sS'POLCONF'
p319
I2465
sS'NEWSFRMY'
p320
I3508
sS'LANGWRK'
p321
I2310
sS'HRS1'
p322
I3
sS'PARTAXES'
p323
I5058
sS'MANHOLD'
p324
I4000
sS'HARJOB5'
p325
I3924
sS'CAMPING'
p326
I1392
sS'TRTNOATT'
p327
I1452
sS'WWWCNTRY'
p328
I2479
sS'VISART'
p329
I3464
sS'DEATHPEN'
p330
I4586
sS'BRKDWHY3'
p331
I2086
sS'BRKDWHY2'
p332
I2085
sS'INTAGE'
p333
I5517
sS'MHMONEY'
p334
I3728
sS'ROSARIES'
p335
I3100
sS'USDOENUF'
p336
I4725
sS'AWAY9'
p337
I5339
sS'AWAY8'
p338
I5333
sS'MOSTACT'
p339
I996
sS'AWAY6'
p340
I5321
sS'AWAY5'
p341
I5315
sS'AWAY4'
p342
I5309
sS'AWAY3'
p343
I5303
sS'AWAY2'
p344
I5297
sS'AWAY1'
p345
I5291
sS'TYPIST'
p346
I775
sS'FIREFTNG'
p347
I3544
sS'UNION'
p348
I567
sS'OWNCLERG'
p349
I3936
sS'RACCLOS'
p350
I372
sS'MEMSCHL'
p351
I953
sS'NUMYOUTH'
p352
I3138
sS'DIVIFKD1'
p353
I4389
sS'CHNGEOTH'
p354
I4876
sS'OBTOHELP'
p355
I1364
sS'YROTHER5'
p356
I3220
sS'YROTHER4'
p357
I3219
sS'YROTHER3'
p358
I3218
sS'YROTHER2'
p359
I3217
sS'YROTHER1'
p360
I3216
sS'MEMUNION'
p361
I950
sS'FRINGE11'
p362
I1346
sS'SUIAGE3'
p363
I4999
sS'SUIAGE2'
p364
I4994
sS'VOLINTL'
p365
I1914
sS'NONURSE'
p366
I1689
sS'REFMORWK'
p367
I1685
sS'DOCSUI'
p368
I2277
sS'COLCOM'
p369
I240
sS'INFLUJEW'
p370
I1221
sS'HISPANIC'
p371
I5231
sS'SCHLETH'
p372
I1646
sS'PAOCC10'
p373
I41
sS'RDOWELL'
p374
I4512
sS'CONTENG'
p375
I2288
sS'OTHHRS'
p376
I4543
sS'ADVANCES'
p377
I1289
sS'WEBYR'
p378
I2637
sS'EARNDES'
p379
I4303
sS'TIMELEIS'
p380
I4468
sS'RACPARTY'
p381
I393
sS'COUNSEL3'
p382
I3943
sS'COUNSEL2'
p383
I3942
sS'COUNSEL1'
p384
I3941
sS'POLWWW'
p385
I2548
sS'MHWKWITH'
p386
I3723
sS'IF00WHO'
p387
I155
sS'HHWKDIS'
p388
I4418
sS'RSPCTREL'
p389
I4657
sS'GRPBOTH4'
p390
I3306
sS'GRPBOTH5'
p391
I3307
sS'GRPBOTH1'
p392
I3303
sS'GRPBOTH2'
p393
I3304
sS'GRPBOTH3'
p394
I3305
sS'LOCLOBBY'
p395
I1014
sS'DOC19A'
p396
I2987
sS'WORKHARD'
p397
I499
sS'TRAVEL12'
p398
I2439
sS'OWNSTOCK'
p399
I2858
sS'EMFRI'
p400
I2620
sS'WLTHHSPS'
p401
I1165
sS'MINCULT'
p402
I4795
sS'OTHSCH'
p403
I1137
sS'USEDPROZ'
p404
I2238
sS'VALPUB'
p405
I1982
sS'SBSEX5'
p406
I1566
sS'SBSEX4'
p407
I1565
sS'SBSEX7'
p408
I1568
sS'SBSEX6'
p409
I1567
sS'SBSEX1'
p410
I1562
sS'RUNHOSP'
p411
I4104
sS'SBSEX2'
p412
I1563
sS'SBSEX9'
p413
I1570
sS'SBSEX8'
p414
I1569
sS'IMBALNCE'
p415
I2006
sS'EARNRS'
p416
I90
sS'COJAIL'
p417
I800
sS'GENEGOO1'
p418
I5043
sS'GENEGOO2'
p419
I5044
sS'OFFSUP'
p420
I1296
sS'EMGETP'
p421
I2615
sS'INTSCI'
p422
I3456
sS'THNKANGR'
p423
I1783
sS'EMPHPLAN'
p424
I3903
sS'LANDWAR'
p425
I806
sS'UNJOBEXP'
p426
I4499
sS'VOLMONTH'
p427
I2900
sS'ENERGY'
p428
I2702
sS'SCHOOL'
p429
I640
sS'CHOICES'
p430
I4881
sS'DANGRSLF'
p431
I2051
sS'FSTSPEDC'
p432
I1494
sS'SPOCC80'
p433
I29
sS'BTHGRP1D'
p434
I5472
sS'FEDTRUST'
p435
I1021
sS'RACMARPR'
p436
I705
sS'ABHAVE2'
p437
I683
sS'ABHAVE3'
p438
I684
sS'ABHAVE1'
p439
I682
sS'NATRECON'
p440
I1890
sS'BTHGRP1A'
p441
I5469
sS'PERFRMGN'
p442
I2557
sS'CAREMOST'
p443
I3447
sS'NATLART'
p444
I2151
sS'MAYRDIED'
p445
I1473
sS'COWRKERS'
p446
I4538
sS'FAITH3'
p447
I1084
sS'FAITH1'
p448
I1082
sS'TRSTPROF'
p449
I1406
sS'OTHCREDT'
p450
I3005
sS'NUMDAYS'
p451
I5265
sS'INFOGOVT'
p452
I4750
sS'KD1JWOTH'
p453
I3811
sS'TIREDWK1'
p454
I4456
sS'IMMFARE'
p455
I1633
sS'MAPAID'
p456
I4392
sS'NUMEMP'
p457
I2176
sS'JOBPUB'
p458
I2629
sS'ETHCLOSE'
p459
I4813
sS'ADHOS'
p460
I2952
sS'TAPHME'
p461
I5209
sS'MEDINFSC'
p462
I3375
sS'EDUC30'
p463
I2413
sS'RAISED'
p464
I2930
sS'ACQVANO'
p465
I3634
sS'AMGOVT'
p466
I4770
sS'ERAIMP'
p467
I697
sS'SECDIPLO'
p468
I5174
sS'RELNUM'
p469
I4137
sS'WRKMINH'
p470
I2577
sS'MAVISIT'
p471
I4108
sS'WRKMINO'
p472
I2606
sS'GOSPEL'
p473
I1377
sS'SBALIVE1'
p474
I1589
sS'NUMLIT'
p475
I3144
sS'DOCNOMRI'
p476
I2772
sS'SPEDUC'
p477
I56
sS'RINCOM82'
p478
I97
sS'ARCHITCT'
p479
I3547
sS'GODSWILL'
p480
I2010
sS'MHHLPFRD'
p481
I3750
sS'FAIREARN'
p482
I2834
sS'HRSYOUTH'
p483
I1942
sS'PARELKID'
p484
I4624
sS'PUBDECID'
p485
I4723
sS'SOCOMMUN'
p486
I505
sS'ENGVOTE'
p487
I2317
sS'GENDER11'
p488
I5348
sS'GODSPORT'
p489
I1121
sS'SOLVET'
p490
I965
sS'BIZGROSS'
p491
I3786
sS'LAWYER'
p492
I1845
sS'SUIWHO2'
p493
I4992
sS'SUIWHO3'
p494
I4997
sS'AMISSUE'
p495
I1609
sS'RXMED'
p496
I2036
sS'CHNGREL'
p497
I3068
sS'LIBATH'
p498
I232
sS'YRSPORT3'
p499
I3175
sS'YRSPORT2'
p500
I3174
sS'YRSPORT1'
p501
I3173
sS'YRSPORT6'
p502
I3178
sS'YRSPORT5'
p503
I3177
sS'YRSPORT4'
p504
I3176
sS'ASKCRIME'
p505
I5164
sS'SUCCESSZ'
p506
I484
sS'SUCCESSY'
p507
I471
sS'ERAREAD'
p508
I690
sS'RELGRPEQ'
p509
I4656
sS'YRLIT4'
p510
I3203
sS'YRLIT2'
p511
I3201
sS'YRLIT3'
p512
I3202
sS'YRLIT1'
p513
I3200
sS'INTLBLKS'
p514
I1181
sS'ASKHELP'
p515
I4582
sS'SPIND10'
p516
I33
sS'FEHLPBUS'
p517
I4011
sS'NUKEACC'
p518
I4747
sS'OPRELIG'
p519
I4230
sS'INCGAP'
p520
I4275
sS'MARFREE'
p521
I4345
sS'SPMAEDUC'
p522
I1503
sS'ARTSEALS'
p523
I3443
sS'ASKWKSCH'
p524
I2643
sS'HOSREL4'
p525
I728
sS'HOSREL1'
p526
I727
sS'TOTENVIR'
p527
I1966
sS'JOBMEANS'
p528
I537
sS'FEHOME'
p529
I571
sS'MEDUNACC'
p530
I2982
sS'PROMTEOK'
p531
I2814
sS'INFOGRN'
p532
I4749
sS'ABORT12'
p533
I2446
sS'GUNAGE'
p534
I645
sS'ABPOOR'
p535
I587
sS'MUSICLST'
p536
I2476
sS'INTLJEWS'
p537
I1180
sS'INTECON'
p538
I3457
sS'UPSDOWNS'
p539
I2011
sS'VOLHLTH'
p540
I1902
sS'PROZKID3'
p541
I2258
sS'PROZKID2'
p542
I2257
sS'VIGSOC'
p543
I2021
sS'RFREENOW'
p544
I2683
sS'MILSERVE'
p545
I4844
sS'FEHLPCOL'
p546
I4012
sS'KD6JWOTH'
p547
I3816
sS'HITNUM'
p548
I643
sS'MANNERSZ'
p549
I483
sS'MANNERSY'
p550
I470
sS'WWWLINE1'
p551
I2571
sS'POSTLF9'
p552
I292
sS'WWWLINE2'
p553
I2572
sS'WRITEGRP'
p554
I1002
sS'POSTLF3'
p555
I286
sS'POSTLF2'
p556
I285
sS'MHSLFSHM'
p557
I3760
sS'FATALISM'
p558
I4615
sS'POSTLF7'
p559
I290
sS'POSTLF6'
p560
I289
sS'POSTLF5'
p561
I288
sS'POSTLF4'
p562
I287
sS'ENGDGR'
p563
I3532
sS'RWRKBABY'
p564
I4377
sS'GAVEPOL'
p565
I1023
sS'RADIOHRS'
p566
I675
sS'TERMVIG'
p567
I2271
sS'VIGMAR'
p568
I2025
sS'SLPPRBLM'
p569
I2855
sS'PATRBLKS'
p570
I1193
sS'KD2RELIG'
p571
I3798
sS'POWRORGS'
p572
I4824
sS'EMPTRAIN'
p573
I3563
sS'AIDSAGE'
p574
I4971
sS'HRSWORK'
p575
I1940
sS'ECONFUTR'
p576
I1661
sS'SIBMOST'
p577
I4165
sS'OBJURY'
p578
I819
sS'FRNDDEN1'
p579
I1096
sS'FRNDDEN3'
p580
I1098
sS'FRNDDEN2'
p581
I1097
sS'FRNDDEN5'
p582
I1100
sS'FRNDDEN4'
p583
I1099
sS'WORKWHTS'
p584
I1167
sS'WORKHSPS'
p585
I1171
sS'CHRISSCH'
p586
I1133
sS'GAME12'
p587
I2441
sS'GENEPROB'
p588
I2929
sS'ACTASSOC'
p589
I4839
sS'TOTINFRM'
p590
I1975
sS'TIMEHOME'
p591
I4422
sS'EMBARRSS'
p592
I1740
sS'MOREMPG'
p593
I3490
sS'ASHAMED'
p594
I1728
sS'LEARNJOB'
p595
I4204
sS'MONINFRM'
p596
I1930
sS'MIRACLES'
p597
I4612
sS'CLRGMODE'
p598
I3967
sS'PEOCNTCT'
p599
I4912
sS'SPPAID'
p600
I613
sS'OTHFRD'
p601
I4214
sS'CHEMGEN'
p602
I4717
sS'ENGFUN'
p603
I3534
sS'IDU30'
p604
I5032
sS'RATETONE'
p605
I3977
sS'RESPECT'
p606
I2800
sS'ROWNGUN'
p607
I666
sS'BIG5A2'
p608
I4937
sS'BIG5A1'
p609
I4932
sS'INTLASNS'
p610
I1182
sS'SWITCH3'
p611
I1035
sS'SWITCH2'
p612
I1034
sS'SWITCH1'
p613
I1033
sS'PROBFIX2'
p614
I1998
sS'PROBFIX3'
p615
I1999
sS'PROBFIX1'
p616
I1997
sS'MNILDUR'
p617
I2106
sS'IF84WHO'
p618
I143
sS'ACQJOSE'
p619
I3586
sS'WKVSFAM'
p620
I2788
sS'RACMEET'
p621
I4847
sS'OTHREL'
p622
I5275
sS'GENETICS'
p623
I2009
sS'RAISEALL'
p624
I1333
sS'TWOINCS1'
p625
I4434
sS'SPWRKSTA'
p626
I21
sS'WKSMOOTH'
p627
I2808
sS'CHEMFAM'
p628
I4718
sS'SISTIME'
p629
I4117
sS'NUMVET'
p630
I3134
sS'PATRHSPS'
p631
I1195
sS'PARWORSE'
p632
I5051
sS'VIGNEI'
p633
I2020
sS'INFLJOBS'
p634
I4066
sS'SSMCHILD'
p635
I4437
sS'ISCO68'
p636
I5423
sS'ALLOWRAC'
p637
I4949
sS'COPUNISH'
p638
I799
sS'MONITRED'
p639
I1295
sS'OWNAUTOS'
p640
I4074
sS'MHNOKIDS'
p641
I3737
sS'CHURCHTX'
p642
I3113
sS'KDSEX6'
p643
I1514
sS'KDSEX5'
p644
I1513
sS'FRDRESP'
p645
I1441
sS'CONCONG'
p646
I4596
sS'KDSEX4'
p647
I1512
sS'KDSEX3'
p648
I1511
sS'KDSEX2'
p649
I1510
sS'KDSEX1'
p650
I1509
sS'JOURNLSM'
p651
I3543
sS'POLINFO'
p652
I2541
sS'SCHLPRAY'
p653
I4637
sS'TOLDREL1'
p654
I3962
sS'TOLDREL2'
p655
I3963
sS'TOLDREL3'
p656
I3964
sS'FAIR'
p657
I423
sS'NOMEAT'
p658
I4728
sS'DECGIFT'
p659
I1900
sS'MARELKID'
p660
I4622
sS'GIVSKILL'
p661
I4264
sS'NUMPOLIT'
p662
I3135
sS'CHKSPFIN'
p663
I5179
sS'SCHOOLNG'
p664
I1351
sS'LITGET'
p665
I2498
sS'ACQWKHSP'
p666
I3642
sS'POLARYR8'
p667
I3434
sS'OPREGION'
p668
I4231
sS'HOMELESS'
p669
I1992
sS'TLKFAM'
p670
I2028
sS'ANTESTS'
p671
I4689
sS'REBORN'
p672
I1060
sS'SHOWANGR'
p673
I1746
sS'DEATH16'
p674
I730
sS'KD10JWOTH'
p675
I3820
sS'PAINCURE'
p676
I2735
sS'TRAUMA1'
p677
I736
sS'RIGHTREF'
p678
I2272
sS'TRAUMA5'
p679
I737
sS'FEELWHTS'
p680
I2751
sS'VALHUMAN'
p681
I1980
sS'KIDSHERE'
p682
I4829
sS'FESERVE'
p683
I761
sS'MHMNTHSP'
p684
I3765
sS'SPMENTL'
p685
I2055
sS'CHILDREN'
p686
I1721
sS'AIDSAGE3'
p687
I4983
sS'SPPRES'
p688
I26
sS'WRKBABY'
p689
I4334
sS'DAYNIGHT'
p690
I3483
sS'WKSUBS'
p691
I561
sS'POLARYR2'
p692
I3428
sS'WKYNGSCS'
p693
I4461
sS'EMPATHY4'
p694
I2879
sS'EMPATHY5'
p695
I2880
sS'EMPATHY6'
p696
I2881
sS'EMPATHY7'
p697
I2882
sS'EMPATHY1'
p698
I2876
sS'EMPATHY2'
p699
I2877
sS'EMPATHY3'
p700
I2878
sS'MONPUB'
p701
I1922
sS'CONJOBS'
p702
I4288
sS'MARNUM'
p703
I1492
sS'HURTSELF'
p704
I2027
sS'VALINFRM'
p705
I1990
sS'TERMINAL'
p706
I2262
sS'HLTH11'
p707
I5103
sS'POSSLQ'
p708
I4131
sS'HLTH13'
p709
I5105
sS'HLTH12'
p710
I5104
sS'SPANKING'
p711
I629
sS'GOOWNWAY'
p712
I1075
sS'MABOYGRL'
p713
I3471
sS'MUSTHOSP'
p714
I2050
sS'TRAINING'
p715
I1352
sS'HLTHCARE'
p716
I4077
sS'ABCARE'
p717
I601
sS'TRTPRISN'
p718
I1454
sS'FRIEND'
p719
I313
sS'KD7JWOTH'
p720
I3817
sS'WIDOWED'
p721
I20
sS'TRTLIB'
p722
I1440
sS'SETTHNGS'
p723
I2812
sS'PAXHAPPY'
p724
I4669
sS'ADOPTKID'
p725
I3913
sS'VOTE92'
p726
I147
sS'SIGNDPET'
p727
I4848
sS'VOTE96'
p728
I150
sS'FAMLIFE'
p729
I1681
sS'HLTH9'
p730
I5101
sS'DRINKDAY'
p731
I3104
sS'ENGODD'
p732
I3536
sS'NUMCHURH'
p733
I3146
sS'BLNUMOKY'
p734
I770
sS'TRTLAWS'
p735
I1438
sS'TAXSPEND'
p736
I4102
sS'OTHER'
p737
I273
sS'RACOCC'
p738
I394
sS'MEKDCARE'
p739
I4408
sS'ECONGRN'
p740
I4746
sS'DOC16A'
p741
I2985
sS'ENTITY'
p742
I3072
sS'ACQNHBLK'
p743
I3591
sS'MTOTHER3'
p744
I3295
sS'MNILHLP2'
p745
I2103
sS'MNILHLP3'
p746
I2104
sS'MNILHLP1'
p747
I2102
sS'POLDSAGR'
p748
I2458
sS'SPREL'
p749
I324
sS'ATHLETIC'
p750
I3054
sS'CONTV'
p751
I439
sS'WLTHASNS'
p752
I1164
sS'TRATOT1'
p753
I740
sS'TRATOT5'
p754
I741
sS'GRNCON'
p755
I3829
sS'SELLORGN'
p756
I1885
sS'DAUCALL'
p757
I4126
sS'LOTTOSAY'
p758
I1292
sS'KD11JWOTH'
p759
I3821
sS'FEELEVEL'
p760
I5515
sS'DOWNQOL'
p761
I2728
sS'DAUNUM'
p762
I4123
sS'MARHOMO'
p763
I4353
sS'EXPTEXT'
p764
I3336
sS'LFEHRDWK'
p765
I1368
sS'SHOTGUN'
p766
I664
sS'PAYROCC'
p767
I4258
sS'RACHOME'
p768
I376
sS'KDWORK1'
p769
I1555
sS'EXTR2001'
p770
I2865
sS'POLABUSE'
p771
I654
sS'EXTR2005'
p772
I3557
sS'USEHOME'
p773
I2567
sS'DIFRACE2'
p774
I5236
sS'DIFRACE3'
p775
I5237
sS'DIFRACE1'
p776
I5235
sS'GETAID'
p777
I566
sS'PAYRBORN'
p778
I1475
sS'NIHILISM'
p779
I4617
sS'VALOTH'
p780
I1991
sS'THEISM'
p781
I4614
sS'CUSSUP'
p782
I2641
sS'GENEGEN'
p783
I4739
sS'BIG5C1'
p784
I4934
sS'BIG5C2'
p785
I4939
sS'FOLK'
p786
I1376
sS'GRASSY'
p787
I270
sS'CAPINFO'
p788
I254
sS'SCIBSTGW'
p789
I3367
sS'MONOTH'
p790
I1931
sS'QUANTITY'
p791
I1319
sS'EVWORK'
p792
I5
sS'PRESPOP'
p793
I3968
sS'PROCESSR'
p794
I2647
sS'TRTHISP'
p795
I1424
sS'SPORTS30'
p796
I2419
sS'BIZBSTTX'
p797
I3390
sS'CAREPROV'
p798
I4448
sS'IDECIDE'
p799
I1293
sS'BLUES'
p800
I1373
sS'SYNMEM'
p801
I3796
sS'PAYMASON'
p802
I4243
sS'WKSEXISM'
p803
I2841
sS'ZOMBIES'
p804
I2971
sS'MOONLITE'
p805
I4542
sS'LEARNNEW'
p806
I2792
sS'UNPLEZNT'
p807
I4534
sS'RACESELF'
p808
I5230
sS'OPSEX'
p809
I4232
sS'FEELGOD'
p810
I2125
sS'COWRKHRD'
p811
I2870
sS'LEAKINFO'
p812
I5183
sS'CLASS'
p813
I551
sS'MEDKDNEG'
p814
I2967
sS'ASKCOMP'
p815
I5172
sS'JOBHELP'
p816
I547
sS'CANINF10'
p817
I2998
sS'CANINF11'
p818
I2999
sS'CANINF12'
p819
I3000
sS'CANINF13'
p820
I3001
sS'CANINF14'
p821
I3002
sS'ADVSIB'
p822
I2519
sS'BREAKDWN'
p823
I2012
sS'CONFED'
p824
I435
sS'BEFAIR'
p825
I4642
sS'ACQVAUNE'
p826
I3641
sS'HSRESPCT'
p827
I4016
sS'WEDNESDY'
p828
I5269
sS'POLCHNGE'
p829
I2463
sS'EVOLVED'
p830
I3347
sS'LOCINFLU'
p831
I1006
sS'PROZAC'
p832
I2237
sS'OTHGUNS'
p833
I3672
sS'FRNDREL1'
p834
I1091
sS'FRNDREL3'
p835
I1093
sS'FRNDREL2'
p836
I1092
sS'FRNDREL5'
p837
I1095
sS'FRNDREL4'
p838
I1094
sS'LITMSTXT'
p839
I3476
sS'SETPRICE'
p840
I4049
sS'FINANQS'
p841
I5201
sS'GWBIZ'
p842
I3362
sS'TRUSTFAM'
p843
I2268
sS'ACQFMHSP'
p844
I3659
sS'EXTRAYR'
p845
I2867
sS'LITCNTRL'
p846
I1745
sS'MHOTHYOU'
p847
I3567
sS'PARENT5'
p848
I867
sS'PARENT4'
p849
I866
sS'PARENT3'
p850
I865
sS'PARENT2'
p851
I864
sS'PARENT1'
p852
I863
sS'INCOME'
p853
I91
sS'POLHITOY'
p854
I5526
sS'SOLCHURH'
p855
I977
sS'PUNSIN'
p856
I1064
sS'FRICALL'
p857
I4148
sS'CONGOVT'
p858
I4598
sS'POLHITOK'
p859
I653
sS'ACQVAPRI'
p860
I3638
sS'ENGLISH'
p861
I1421
sS'BLKSCHL'
p862
I2357
sS'NOONEBEN'
p863
I1699
sS'NUMUNEMP'
p864
I1256
sS'SATLAWYR'
p865
I1855
sS'FAMVSWK'
p866
I2789
sS'DAYCARE3'
p867
I4339
sS'DAYCARE2'
p868
I4338
sS'DAYCARE1'
p869
I4337
sS'DAYCARE5'
p870
I4341
sS'DAYCARE4'
p871
I4340
sS'ABSINGLE'
p872
I589
sS'AMLIVED'
p873
I4767
sS'SPKSOC'
p874
I233
sS'USFRUSTR'
p875
I1808
sS'INDFIRST'
p876
I1482
sS'HSSEXED'
p877
I4015
sS'NATARMSY'
p878
I191
sS'NATARMSZ'
p879
I202
sS'TOMATOES'
p880
I3350
sS'GRPSPRTS'
p881
I4859
sS'ACQGAY'
p882
I3605
sS'UNDK'
p883
I4501
sS'GOVMINC'
p884
I4281
sS'LIVEHSPS'
p885
I1200
sS'ABSENT'
p886
I4568
sS'LETTERS'
p887
I2563
sS'MAPRES80'
p888
I44
sS'REG16'
p889
I71
sS'INTEREST'
p890
I468
sS'INTERESZ'
p891
I494
sS'INTERESY'
p892
I481
sS'WORKLIFE'
p893
I1682
sS'TEMPGEN1'
p894
I3836
sS'VOLWORK'
p895
I1910
sS'MHVIOSLF'
p896
I3767
sS'WHYWKHME'
p897
I2786
sS'HLTHFREL'
p898
I2538
sS'BRKDWHY1'
p899
I2084
sS'EMOTRELY'
p900
I2741
sS'MTHOBBY3'
p901
I3267
sS'MTHOBBY2'
p902
I3266
sS'MTHOBBY1'
p903
I3265
sS'MTLIT1'
p904
I3277
sS'MTLIT2'
p905
I3278
sS'MTLIT3'
p906
I3279
sS'JOBINFO'
p907
I2627
sS'LAYOFFS'
p908
I1901
sS'TOTWORK'
p909
I1970
sS'SPKMSLM'
p910
I248
sS'FRSTMET5'
p911
I3312
sS'FRSTMET4'
p912
I3311
sS'FRSTMET3'
p913
I3310
sS'FRSTMET2'
p914
I3309
sS'FRSTMET1'
p915
I3308
sS'GIVEREL'
p916
I1123
sS'OLD11'
p917
I5349
sS'OLD10'
p918
I5343
sS'OLD13'
p919
I5361
sS'OLD12'
p920
I5355
sS'OLD14'
p921
I5367
sS'DOUBTS4'
p922
I1081
sS'SUPHELP'
p923
I2825
sS'DOUBTS1'
p924
I1078
sS'DOUBTS2'
p925
I1079
sS'DOUBTS3'
p926
I1080
sS'PAYCLERK'
p927
I4245
sS'VIOLSO'
p928
I1178
sS'TOTPUB'
p929
I1967
sS'VOLINFRM'
p930
I1915
sS'SAQGENE'
p931
I5512
sS'CANTRUST'
p932
I4643
sS'NOTLOYAL'
p933
I1325
sS'SALSATFN'
p934
I717
sS'ROLECCP'
p935
I5062
sS'AGECMEUS'
p936
I3898
sS'CONDRIFT'
p937
I3346
sS'TIREDWRK'
p938
I4428
sS'SUPFAM'
p939
I2909
sS'COMPREND'
p940
I679
sS'DECBED'
p941
I1899
sS'WKRACISM'
p942
I2840
sS'DIVNOKD1'
p943
I4390
sS'FREEMNS2'
p944
I2675
sS'FREEMNS3'
p945
I2676
sS'WRKINDEP'
p946
I1291
sS'FREEMNS1'
p947
I2674
sS'ACQMARK'
p948
I3582
sS'REFPROMO'
p949
I1684
sS'IMPCULTR'
p950
I1453
sS'VOLPOL'
p951
I1911
sS'FLEXHRS'
p952
I4493
sS'RACFIRM'
p953
I400
sS'EZINES'
p954
I2653
sS'KIDXFILM'
p955
I4034
sS'NANOBEN'
p956
I3488
sS'SPLOCNUM'
p957
I1358
sS'SMALLBIG'
p958
I4503
sS'TALKTO4'
p959
I916
sS'TALKTO5'
p960
I917
sS'TALKTO1'
p961
I913
sS'TALKTO2'
p962
I914
sS'TALKTO3'
p963
I915
sS'RACQUIT'
p964
I710
sS'REPLACEU'
p965
I4926
sS'POLLGOOD'
p966
I759
sS'TVBEARS'
p967
I3422
sS'GRACE16'
p968
I1053
sS'SERIOUSP'
p969
I2004
sS'SHAKEBLU'
p970
I1723
sS'PAINMED'
p971
I2276
sS'NOSUN'
p972
I3436
sS'MEN'
p973
I1720
sS'GIVFARM'
p974
I4265
sS'KIDLIVED'
p975
I3914
sS'BLKWHITE'
p976
I1065
sS'PALEFULL'
p977
I297
sS'BIG5E2'
p978
I4941
sS'BIG5E1'
p979
I4936
sS'SPPRES80'
p980
I30
sS'KIDLESS'
p981
I4363
sS'SALABORT'
p982
I718
sS'PARHARDR'
p983
I5050
sS'SEALEVEL'
p984
I3442
sS'CARECOST'
p985
I4449
sS'SHOPFOOD'
p986
I4401
sS'PARTTHON'
p987
I2921
sS'PUNTRCK'
p988
I5191
sS'MHCAUSE'
p989
I3768
sS'HITAGE'
p990
I642
sS'MADEATH'
p991
I732
sS'TEAMSAFE'
p992
I2804
sS'WATERGEN'
p993
I4719
sS'SOCRIGHT'
p994
I4639
sS'JEWSCOM'
p995
I2363
sS'ATTEND12'
p996
I4632
sS'PROFITS2'
p997
I1247
sS'PROFITS1'
p998
I1246
sS'YRSERV5'
p999
I3157
sS'RELITEN'
p1000
I282
sS'YRSERV7'
p1001
I3159
sS'WAYPAID'
p1002
I2780
sS'BORROW2A'
p1003
I4197
sS'RELIDBST'
p1004
I5284
sS'YRSERV3'
p1005
I3155
sS'RACPUB'
p1006
I3992
sS'PAYJUDGE'
p1007
I4257
sS'NUCLRWAR'
p1008
I5217
sS'EVBRKDWN'
p1009
I2083
sS'ORMNTLDC'
p1010
I2041
sS'DOC20'
p1011
I2236
sS'PAIDLVDV'
p1012
I4445
sS'MHOTHREL'
p1013
I3568
sS'DISCIPLN'
p1014
I2932
sS'TERMEMOT'
p1015
I2265
sS'CHLDPRB'
p1016
I2923
sS'BIZSHARE'
p1017
I3787
sS'SELFHELP'
p1018
I2034
sS'SINGLPAR'
p1019
I4385
sS'HLTHPAPR'
p1020
I2534
sS'MTVET2'
p1021
I3239
sS'MTVET3'
p1022
I3240
sS'MTVET1'
p1023
I3238
sS'MTVET4'
p1024
I3241
sS'MTVET5'
p1025
I3242
sS'MAIND10'
p1026
I48
sS'MHTRUSTY'
p1027
I3742
sS'PAYTAXES'
p1028
I4836
sS'PERSCRFC'
p1029
I4673
sS'SPHEDPRE'
p1030
I1505
sS'XMOVIE'
p1031
I624
sS'EQUAL8'
p1032
I216
sS'GODWATCH'
p1033
I2119
sS'EQUAL6'
p1034
I214
sS'EQUAL7'
p1035
I215
sS'EQUAL4'
p1036
I212
sS'EQUAL5'
p1037
I213
sS'EQUAL2'
p1038
I210
sS'EQUAL3'
p1039
I211
sS'EQUAL1'
p1040
I209
sS'ACQNHASN'
p1041
I3589
sS'FORBDCOM'
p1042
I4945
sS'COWRKREL'
p1043
I1350
sS'LIVEWITH'
p1044
I1667
sS'RELPERSN'
p1045
I2137
sS'NATARMS'
p1046
I173
sS'SIBS'
p1047
I49
sS'HHTYPE'
p1048
I5388
sS'MHSECRET'
p1049
I3746
sS'LEVELS'
p1050
I1299
sS'RACOPEN'
p1051
I370
sS'PROB4'
p1052
I5092
sS'PROB2'
p1053
I5090
sS'PROB3'
p1054
I5091
sS'PROB1'
p1055
I5089
sS'RSECJOB'
p1056
I4519
sS'NOEMOTE'
p1057
I1748
sS'VIOLPEOP'
p1058
I2960
sS'SBPICKED'
p1059
I1598
sS'TAXSHARE'
p1060
I4285
sS'PRICECON'
p1061
I4076
sS'FREENOW'
p1062
I2682
sS'SHOPNUM'
p1063
I1140
sS'CLASSY'
p1064
I552
sS'RWRKGRWN'
p1065
I4379
sS'ADVFRONT'
p1066
I3324
sS'RACAVOID'
p1067
I708
sS'USWHT'
p1068
I2327
sS'SERVEPEO'
p1069
I4885
sS'ALIENAT2'
p1070
I412
sS'ALIENAT3'
p1071
I413
sS'ALIENAT1'
p1072
I411
sS'ALIENAT6'
p1073
I416
sS'ALIENAT4'
p1074
I414
sS'ALIENAT5'
p1075
I415
sS'FORCEMED'
p1076
I2955
sS'OTHSHELP'
p1077
I2896
sS'PAPRES80'
p1078
I39
sS'SAMEWORK'
p1079
I2164
sS'MTCHURH1'
p1080
I3287
sS'IF88WHO'
p1081
I146
sS'PAYBUS'
p1082
I4251
sS'VOLWKREL'
p1083
I4650
sS'AIDSMART'
p1084
I4025
sS'AIDSSXED'
p1085
I5007
sS'COMSNOOP'
p1086
I5195
sS'ACQFMGAY'
p1087
I3654
sS'SICK1A'
p1088
I4194
sS'PEACEFUL'
p1089
I2701
sS'MACALL1'
p1090
I4175
sS'DENOM'
p1091
I272
sS'SUIAGE'
p1092
I4989
sS'HUNTOTHR'
p1093
I672
sS'USENTHUS'
p1094
I1809
sS'ENGLONE'
p1095
I3531
sS'MUSICINF'
p1096
I2474
sS'HARSEXJB'
p1097
I3934
sS'ANTIWAR'
p1098
I638
sS'COPE4'
p1099
I2116
sS'COPE5'
p1100
I2117
sS'COPE6'
p1101
I2118
sS'COPE1'
p1102
I2113
sS'COPE2'
p1103
I2114
sS'COPE3'
p1104
I2115
sS'SPENVIRO'
p1105
I4056
sS'RELSP9'
p1106
I5416
sS'RELSP2'
p1107
I5409
sS'NATROADZ'
p1108
I205
sS'RELSP1'
p1109
I5408
sS'RELSP6'
p1110
I5413
sS'RELSP7'
p1111
I5414
sS'RELSP4'
p1112
I5411
sS'RELSP5'
p1113
I5412
sS'EDUCEMP'
p1114
I4481
sS'MHDOHEAL'
p1115
I3694
sS'PUNARMS'
p1116
I5187
sS'MINMILOP'
p1117
I797
sS'CIDERACE'
p1118
I4955
sS'POLTV'
p1119
I2545
sS'INEQUAL5'
p1120
I4240
sS'INEQUAL4'
p1121
I4239
sS'INEQUAL7'
p1122
I4242
sS'INEQUAL6'
p1123
I4241
sS'INEQUAL1'
p1124
I4236
sS'INEQUAL3'
p1125
I4238
sS'INEQUAL2'
p1126
I4237
sS'SPOUSE1'
p1127
I858
sS'SPOUSE2'
p1128
I859
sS'SPOUSE3'
p1129
I860
sS'SPOUSE4'
p1130
I861
sS'SPOUSE5'
p1131
I862
sS'VOLRELIG'
p1132
I1904
sS'INTENVIR'
p1133
I3461
sS'RACINFO'
p1134
I399
sS'COWORK1'
p1135
I883
sS'COWORK2'
p1136
I884
sS'COWORK3'
p1137
I885
sS'COWORK4'
p1138
I886
sS'COWORK5'
p1139
I887
sS'ANXIOUS'
p1140
I1735
sS'BOSSEMPS'
p1141
I4537
sS'ACTNAT'
p1142
I989
sS'JEW16'
p1143
I329
sS'USJEWS'
p1144
I2329
sS'TRTKAREN'
p1145
I1432
sS'DEMTODAY'
p1146
I4888
sS'EMSENT'
p1147
I2612
sS'NUMPROMO'
p1148
I1284
sS'HISTSCI'
p1149
I3411
sS'NUKEFAM'
p1150
I4714
sS'LFTPLANE'
p1151
I3474
sS'COURTS'
p1152
I260
sS'FRIVISIT'
p1153
I4146
sS'ADTCHMED'
p1154
I2945
sS'USMIXED'
p1155
I2333
sS'PAYRDIED'
p1156
I1476
sS'TOTSUP'
p1157
I1300
sS'NUMCLERG'
p1158
I3937
sS'SOLGREEK'
p1159
I972
sS'MONART'
p1160
I1924
sS'WORK8'
p1161
I5114
sS'WORK9'
p1162
I5115
sS'WORK1'
p1163
I5107
sS'WORK2'
p1164
I5108
sS'WORK3'
p1165
I5109
sS'WORK4'
p1166
I5110
sS'WORK5'
p1167
I5111
sS'ENVIRO12'
p1168
I2450
sS'WORK7'
p1169
I5113
sS'COMWHT'
p1170
I2340
sS'ICECAPS'
p1171
I3439
sS'RELALT6'
p1172
I3087
sS'RELALT1'
p1173
I3082
sS'RELALT3'
p1174
I3084
sS'RELALT2'
p1175
I3083
sS'HOBBY30'
p1176
I2430
sS'MHNOTPOL'
p1177
I3735
sS'SUPCARES'
p1178
I2820
sS'AFFCTLAW'
p1179
I4871
sS'NOGOVT'
p1180
I2686
sS'LIVECOM1'
p1181
I4804
sS'WANTJOB1'
p1182
I4555
sS'WANTJOB2'
p1183
I4574
sS'SBREL8'
p1184
I1587
sS'SBREL9'
p1185
I1588
sS'SBREL6'
p1186
I1585
sS'SBREL7'
p1187
I1586
sS'SBREL4'
p1188
I1583
sS'SBREL5'
p1189
I1584
sS'SBREL2'
p1190
I1581
sS'SBREL3'
p1191
I1582
sS'SBREL1'
p1192
I1580
sS'JOBSECOK'
p1193
I2824
sS'UNSKLRNK'
p1194
I4319
sS'ACQVALIN'
p1195
I3626
sS'ACQVALIB'
p1196
I3625
sS'ENGBTR'
p1197
I3537
sS'YEARSJOB'
p1198
I2779
sS'NOPLAN'
p1199
I1742
sS'POLINFTX'
p1200
I3388
sS'ETHORGS'
p1201
I1619
sS'MNILDO1'
p1202
I2099
sS'MNILDO2'
p1203
I2100
sS'MNILDO3'
p1204
I2101
sS'WWWOLDIE'
p1205
I2482
sS'DOTTHNG'
p1206
I112
sS'WRKYOUNG'
p1207
I1147
sS'PRES92'
p1208
I148
sS'PRES96'
p1209
I151
sS'FAIR5'
p1210
I3828
sS'EVHARJB'
p1211
I3923
sS'ALLBEN'
p1212
I1698
sS'ERAWHY3'
p1213
I696
sS'ERAWHY2'
p1214
I695
sS'ERAWHY1'
p1215
I694
sS'KNWHISP'
p1216
I2350
sS'MONEDUC'
p1217
I1918
sS'KNOWWHAT'
p1218
I2798
sS'PAYEXEC'
p1219
I4247
sS'NUMWOMEN'
p1220
I5021
sS'LETIN1'
p1221
I4801
sS'IMPPROMO'
p1222
I1285
sS'VOLENVIR'
p1223
I1906
sS'BROWSER2'
p1224
I2649
sS'BROWSER3'
p1225
I2650
sS'READFICT'
p1226
I2146
sS'HLPNEEDY'
p1227
I2920
sS'OCCFIRST'
p1228
I1479
sS'KNOWN1'
p1229
I918
sS'KNOWN3'
p1230
I920
sS'KNOWN2'
p1231
I919
sS'KNOWN5'
p1232
I922
sS'KNOWN4'
p1233
I921
sS'PASTDOWN'
p1234
I1660
sS'MEMVET'
p1235
I948
sS'WORK3YRS'
p1236
I3871
sS'WHYCHNG2'
p1237
I3077
sS'WHYCHNG3'
p1238
I3078
sS'WHYCHNG1'
p1239
I3076
sS'NATSOCZ'
p1240
I206
sS'TRUSTMAN'
p1241
I2801
sS'PAJWOTH'
p1242
I3794
sS'TWOLANG'
p1243
I2312
sS'CATHTEMP'
p1244
I359
sS'PROUDEMP'
p1245
I2806
sS'OWNFATE'
p1246
I4620
sS'PROMOTN'
p1247
I4487
sS'OTHCHRCH'
p1248
I1141
sS'RDEEMLIB'
p1249
I322
sS'ACTGREEK'
p1250
I988
sS'MHUNEASY'
p1251
I3732
sS'GIVSEC'
p1252
I4266
sS'ACQVAHME'
p1253
I3618
sS'GAMES30'
p1254
I2425
sS'MADAT20'
p1255
I1777
sS'MADAT21'
p1256
I1778
sS'MADAT22'
p1257
I1779
sS'MADAT23'
p1258
I1780
sS'OWNETH'
p1259
I1643
sS'OWNPOWER'
p1260
I4070
sS'RELSP8'
p1261
I5415
sS'PARSLAW'
p1262
I4178
sS'TYPFRAT'
p1263
I3115
sS'FAREBLKS'
p1264
I1187
sS'OPKNOW'
p1265
I4227
sS'GOVAID'
p1266
I565
sS'WWWHOME'
p1267
I2569
sS'ATTENDPA'
p1268
I4631
sS'SOLOK'
p1269
I4861
sS'MAATTEND'
p1270
I279
sS'GRNSIGN'
p1271
I4731
sS'NANOHARM'
p1272
I3489
sS'PLYMUSIC'
p1273
I1401
sS'RINCOM06'
p1274
I105
sS'MINFOOD'
p1275
I5158
sS'INSRLMTS'
p1276
I2763
sS'OBENG'
p1277
I821
sS'FAMDIF16'
p1278
I74
sS'FEPRIEST'
p1279
I362
sS'FEARFUL'
p1280
I1731
sS'VIOLASNS'
p1281
I1176
sS'ETHNOFIT'
p1282
I2745
sS'SELLBED'
p1283
I1868
sS'KD14RELIG'
p1284
I3810
sS'RELMHSP1'
p1285
I2076
sS'RELMHSP3'
p1286
I2078
sS'RELMHSP2'
p1287
I2077
sS'RELMHSP5'
p1288
I2080
sS'RELMHSP4'
p1289
I2079
sS'RELMHSP6'
p1290
I2081
sS'EMHRO'
p1291
I2609
sS'EMHRH'
p1292
I2580
sS'MARCOHRT'
p1293
I5460
sS'TOTART'
p1294
I1969
sS'HELPUSA'
p1295
I4842
sS'EMHRW'
p1296
I2593
sS'HEALTH1'
p1297
I2844
sS'SPHEDSLF'
p1298
I1506
sS'RHMEWRK'
p1299
I1677
sS'JUDGE'
p1300
I305
sS'ZODIAC'
p1301
I5462
sS'OVRJOYED'
p1302
I1732
sS'GAMEGN'
p1303
I2553
sS'LOOKJOB'
p1304
I4576
sS'GILLS'
p1305
I3481
sS'PRESFRST'
p1306
I1480
sS'LEAVEJB'
p1307
I3893
sS'WHNANGRY'
p1308
I1757
sS'GOVEQINC'
p1309
I4276
sS'ORSLFHLP'
p1310
I2044
sS'TRTELECS'
p1311
I1418
sS'WORKPOL'
p1312
I1012
sS'CONBUS'
p1313
I432
sS'UNHLTHY'
p1314
I4533
sS'HGUNCRIM'
p1315
I3063
sS'SPFUND16'
p1316
I342
sS'JOBHOUR'
p1317
I535
sS'DEM10FUT'
p1318
I4890
sS'HELPFUL'
p1319
I422
sS'SWITNUM'
p1320
I1036
sS'FRNDFND4'
p1321
I1109
sS'FRNDFND5'
p1322
I1110
sS'FRNDFND2'
p1323
I1107
sS'FRNDFND3'
p1324
I1108
sS'FRINEIGH'
p1325
I4144
sS'FRNDFND1'
p1326
I1106
sS'ARTMUS3'
p1327
I2495
sS'ARTMUS2'
p1328
I2492
sS'ARTMUS1'
p1329
I2491
sS'FREETRDE'
p1330
I4822
sS'MUSICLKE'
p1331
I2487
sS'LESSPAIN'
p1332
I2120
sS'MHHLPOTH'
p1333
I3772
sS'RPTCOWRK'
p1334
I5162
sS'OPHRDWRK'
p1335
I4226
sS'QUITSMK'
p1336
I516
sS'LETINHSP'
p1337
I2321
sS'HSSCI'
p1338
I4020
sS'FENUMOK'
p1339
I766
sS'JOBYEARS'
p1340
I1274
sS'CHNANG10'
p1341
I1793
sS'CHNANG11'
p1342
I1794
sS'CHNANG12'
p1343
I1795
sS'CHNANG13'
p1344
I1796
sS'CHNANG14'
p1345
I1797
sS'CHNANG15'
p1346
I1798
sS'CHNANG16'
p1347
I1799
sS'NUMGREEK'
p1348
I3141
sS'GENENVO4'
p1349
I3040
sS'HWDUTIES'
p1350
I4473
sS'GENENVO2'
p1351
I3038
sS'GENENVO3'
p1352
I3039
sS'GENENVO1'
p1353
I3037
sS'DECAUTO'
p1354
I1898
sS'HVYLIFT'
p1355
I2830
sS'SELFRESP'
p1356
I1802
sS'WWWART'
p1357
I2490
sS'TRANSREL'
p1358
I1879
sS'GIVDOC'
p1359
I4260
sS'STOCKVAL'
p1360
I2859
sS'SHARESEP'
p1361
I1675
sS'LIVEASNS'
p1362
I1199
sS'AGE'
p1363
I51
sS'LFESOCTY'
p1364
I1367
sS'DAILYWRK'
p1365
I4919
sS'TOTUNEMP'
p1366
I1257
sS'TWOINCS'
p1367
I4330
sS'UNIONSOK'
p1368
I4087
sS'INLAWNUM'
p1369
I4136
sS'PASEI'
p1370
I5436
sS'OTHLANG'
p1371
I2300
sS'DISCWHY1'
p1372
I1235
sS'DISCWHY3'
p1373
I1237
sS'DISCWHY2'
p1374
I1236
sS'DISCWHY5'
p1375
I1239
sS'DISCWHY4'
p1376
I1238
sS'DISCWHY6'
p1377
I1240
sS'RELEXPER'
p1378
I4621
sS'OTHJEW16'
p1379
I328
sS'MAEDUC'
p1380
I55
sS'FELESS3'
p1381
I1707
sS'FELESS2'
p1382
I1706
sS'FELESS1'
p1383
I1705
sS'MUSTMED'
p1384
I2049
sS'TXPOL'
p1385
I3384
sS'VALPOL'
p1386
I1986
sS'TRTASIAN'
p1387
I1407
sS'TAXES12'
p1388
I2453
sS'HLTHDAYS'
p1389
I2847
sS'MHSUPWRK'
p1390
I3747
sS'DRINK12'
p1391
I3107
sS'FUND16'
p1392
I331
sS'GRNTEST1'
p1393
I4703
sS'SICK2'
p1394
I4152
sS'SICK1'
p1395
I4151
sS'SPKLANGW'
p1396
I2320
sS'GRNTEST5'
p1397
I4707
sS'GRNTEST4'
p1398
I4706
sS'GRNTEST7'
p1399
I4709
sS'GRNTEST6'
p1400
I4708
sS'SPKLANG1'
p1401
I4808
sS'SPKLANG2'
p1402
I4809
sS'SPKLANG3'
p1403
I4810
sS'ACQVAASN'
p1404
I3595
sS'SHOPREL'
p1405
I1138
sS'HURTATWK'
p1406
I2851
sS'UPLOAD'
p1407
I2531
sS'ELDERSUP'
p1408
I4441
sS'SPWRKSLF'
p1409
I27
sS'PRES76'
p1410
I136
sS'PRES72'
p1411
I133
sS'BUSING'
p1412
I381
sS'VIOLJEWS'
p1413
I1174
sS'POLAGREE'
p1414
I2456
sS'HITOK'
p1415
I647
sS'EDUC1'
p1416
I923
sS'EDUC2'
p1417
I924
sS'EDUC3'
p1418
I925
sS'EDUC4'
p1419
I926
sS'EDUC5'
p1420
I927
sS'ENGBRNG'
p1421
I3541
sS'ORMNTLHS'
p1422
I2047
sS'YEARLY'
p1423
I2182
sS'AMSHAMED'
p1424
I4773
sS'WORKIMM'
p1425
I1655
sS'PARTOPN5'
p1426
I5024
sS'AGAPE4'
p1427
I3061
sS'AGAPE2'
p1428
I3059
sS'AGAPE3'
p1429
I3060
sS'KD9JWOTH'
p1430
I3819
sS'AGAPE1'
p1431
I3058
sS'KIDSOCST'
p1432
I4440
sS'TABLPRCE'
p1433
I1882
sS'DOWNBLUE'
p1434
I2704
sS'HOWPAID'
p1435
I2177
sS'NEWJOBGN'
p1436
I2554
sS'KIDSKIPS'
p1437
I4028
sS'HOTARGUS'
p1438
I3012
sS'MEDCARE2'
p1439
I2054
sS'MEDCARE1'
p1440
I2053
sS'REVPUB'
p1441
I3989
sS'PAYOWNER'
p1442
I4246
sS'MANTAP'
p1443
I3998
sS'RACTCH15'
p1444
I3991
sS'SKLTRAIN'
p1445
I4942
sS'UNREL4'
p1446
I725
sS'UNREL1'
p1447
I724
sS'SATCITY'
p1448
I426
sS'CALM'
p1449
I1724
sS'BABIES'
p1450
I85
sS'PAIDSEX'
p1451
I5015
sS'PAYSUP'
p1452
I4310
sS'JOBCOWRK'
p1453
I2630
sS'DIDLESSE'
p1454
I2698
sS'DIDLESSP'
p1455
I2696
sS'FORMLDYS'
p1456
I2169
sS'SPDIPGED'
p1457
I64
sS'MHGVTEDC'
p1458
I3758
sS'SIBCALL'
p1459
I4167
sS'TRUSTING'
p1460
I2183
sS'AIDSWHO'
p1461
I4968
sS'ACQELECS'
p1462
I3643
sS'LEARNING'
p1463
I1353
sS'CIDEKNEW'
p1464
I4951
sS'FAMWKBST'
p1465
I4446
sS'PAIND80'
p1466
I40
sS'SCIENTSN'
p1467
I3513
sS'MILQUAL'
p1468
I764
sS'INTHISP'
p1469
I5463
sS'VISIONS'
p1470
I301
sS'AUTORACE'
p1471
I1391
sS'ACQDEMS'
p1472
I3640
sS'WKBHVRS'
p1473
I3027
sS'ADVLIB'
p1474
I2527
sS'VOTEELEC'
p1475
I4835
sS'GODOC'
p1476
I5261
sS'CLSESTAT'
p1477
I4756
sS'NEIETH8'
p1478
I2386
sS'NEIETH9'
p1479
I2387
sS'ACQLIB'
p1480
I3617
sS'NEIETH1'
p1481
I2379
sS'NEIETH2'
p1482
I2380
sS'NEIETH3'
p1483
I2381
sS'NEIETH4'
p1484
I2382
sS'NEIETH5'
p1485
I2383
sS'NEIETH6'
p1486
I2384
sS'NEIETH7'
p1487
I2385
sS'POLEFF9'
p1488
I4046
sS'HRSINFRM'
p1489
I1945
sS'POLEFF1'
p1490
I4038
sS'POLEFF3'
p1491
I4040
sS'POLEFF2'
p1492
I4039
sS'POLEFF5'
p1493
I4042
sS'POLEFF4'
p1494
I4041
sS'POLEFF7'
p1495
I4044
sS'POLEFF6'
p1496
I4043
sS'HRSPOL'
p1497
I1941
sS'JAPAN'
p1498
I5446
sS'VALART'
p1499
I1984
sS'SPFAM16'
p1500
I1501
sS'PADEG'
p1501
I58
sS'INCNEED'
p1502
I558
sS'CRIMUP'
p1503
I3064
sS'JOBVSFA1'
p1504
I4455
sS'EXPTRAIN'
p1505
I1354
sS'NOTWORRY'
p1506
I1751
sS'FAIRHWRK'
p1507
I1679
sS'BELIEVE'
p1508
I1073
sS'IMMWRKUP'
p1509
I1638
sS'PADEN'
p1510
I1047
sS'NATSPACY'
p1511
I183
sS'NATSPACZ'
p1512
I194
sS'WTSSNR'
p1513
I5544
sS'USEDUP'
p1514
I2848
sS'JOBVSFAM'
p1515
I4427
sS'CLERGVTE'
p1516
I4603
sS'MTYOUTH4'
p1517
I3259
sS'MTYOUTH5'
p1518
I3260
sS'MTYOUTH1'
p1519
I3256
sS'MTYOUTH2'
p1520
I3257
sS'MTYOUTH3'
p1521
I3258
sS'WORKDIFF'
p1522
I2794
sS'MNTLSYM1'
p1523
I2062
sS'ACQFMMRK'
p1524
I3662
sS'RACJOB'
p1525
I384
sS'EXTINCT'
p1526
I3441
sS'SPARMS'
p1527
I4060
sS'DIVORCE'
p1528
I19
sS'JBTRAIN'
p1529
I4924
sS'BIZINFNK'
p1530
I3499
sS'INCOME77'
p1531
I94
sS'INCOME72'
p1532
I93
sS'SYMPTBLK'
p1533
I1622
sS'TWOKIDS'
p1534
I4357
sS'FRDTHINK'
p1535
I4205
sS'FLEXTIME'
p1536
I1693
sS'MADAT3'
p1537
I1760
sS'GRNEXAGG'
p1538
I4738
sS'ENGINT'
p1539
I3539
sS'POL30'
p1540
I2417
sS'ACQVAMRK'
p1541
I3631
sS'SEEMOVIE'
p1542
I1399
sS'KIDEDPAR'
p1543
I4033
sS'NOBUYGRN'
p1544
I3841
sS'MADAT6'
p1545
I1763
sS'RES2006'
p1546
I5539
sS'REGDOC'
p1547
I2756
sS'YRCHURH5'
p1548
I3214
sS'YRCHURH4'
p1549
I3213
sS'EMGET'
p1550
I2614
sS'TRTCON'
p1551
I1413
sS'YRCHURH3'
p1552
I3212
sS'YRCHURH2'
p1553
I3211
sS'SPDOTDAT'
p1554
I116
sS'MARASIAN'
p1555
I1206
sS'KDEDUC4'
p1556
I1548
sS'OTJTRAIN'
p1557
I2166
sS'BLKCLS'
p1558
I2361
sS'ABDEFECT'
p1559
I584
sS'LETDIE2'
p1560
I631
sS'DECKIDS'
p1561
I4419
sS'FINALTER'
p1562
I556
sS'CARSFAM'
p1563
I4711
sS'RACSUBS'
p1564
I702
sS'INTPOL'
p1565
I1010
sS'ACQNHHSP'
p1566
I3613
sS'GETMAR1'
p1567
I2914
sS'TRTMILS'
p1568
I1448
sS'PARWORK'
p1569
I5057
sS'WORK6'
p1570
I5112
sS'SPJREL16'
p1571
I3791
sS'ARTGOD'
p1572
I2141
sS'ANGRY'
p1573
I1739
sS'BTHGRP4C'
p1574
I5489
sS'BTHGRP4B'
p1575
I5488
sS'BTHGRP4A'
p1576
I5487
sS'BTHGRP4F'
p1577
I5492
sS'BTHGRP4E'
p1578
I5491
sS'BTHGRP4D'
p1579
I5490
sS'PAYDOWEL'
p1580
I4313
sS'KD3RELIG'
p1581
I3799
sS'POWERUN'
p1582
I4877
sS'DONOTHNG'
p1583
I2873
sS'GODHELP'
p1584
I3092
sS'RELALT5'
p1585
I3086
sS'RELALT4'
p1586
I3085
sS'CONEDUCY'
p1587
I447
sS'UNBETTER'
p1588
I4916
sS'ATTREG'
p1589
I5273
sS'SALSCI'
p1590
I719
sS'KIDNOFRE'
p1591
I4362
sS'YRSFIRM'
p1592
I4474
sS'SAFETYWK'
p1593
I2802
sS'PRIVACY'
p1594
I755
sS'ARTSCHNG'
p1595
I2472
sS'MHTRTOT2'
p1596
I3769
sS'RELEXP'
p1597
I2139
sS'MODE'
p1598
I5520
sS'EVBUYHME'
p1599
I1829
sS'MHTRTOTH'
p1600
I3566
sS'RACSUBGV'
p1601
I703
sS'GIVREC'
p1602
I1953
sS'FRINUM'
p1603
I4142
sS'TRUST'
p1604
I424
sS'SCIENTR'
p1605
I3514
sS'FAREWHTS'
p1606
I1185
sS'NATDISCM'
p1607
I3676
sS'LFEGENES'
p1608
I1366
sS'RICHWORK'
p1609
I532
sS'MEHHWORK'
p1610
I4407
sS'COLMIL'
p1611
I243
sS'WTSS'
p1612
I5543
sS'HISPREL'
p1613
I2369
sS'EGOMEANS'
p1614
I4619
sS'MHPROBLM'
p1615
I3687
sS'KIDDRUGS'
p1616
I4027
sS'POLBSTSC'
p1617
I3380
sS'TALKBACK'
p1618
I1150
sS'NATPARKZ'
p1619
I208
sS'BRKDAS2'
p1620
I2067
sS'SOCSECRT'
p1621
I2259
sS'MEDBSTGM'
p1622
I3397
sS'MILOKFE'
p1623
I802
sS'RELACTIV'
p1624
I4634
sS'PAIN'
p1625
I2700
sS'RELID1'
p1626
I5281
sS'RELID2'
p1627
I5282
sS'RELID3'
p1628
I5283
sS'PAOCC80'
p1629
I38
sS'PAVISIT'
p1630
I4112
sS'TYPPROF'
p1631
I3128
sS'CANADA'
p1632
I5448
sS'HEAVEN'
p1633
I4610
sS'SPDSABKD'
p1634
I5085
sS'ABFIRM'
p1635
I600
sS'RACE1'
p1636
I853
sS'RACE2'
p1637
I854
sS'RACE3'
p1638
I855
sS'RACE4'
p1639
I856
sS'RACE5'
p1640
I857
sS'CUREMPYR'
p1641
I3872
sS'ETHDIFF'
p1642
I2753
sS'ASKDRINK'
p1643
I5168
sS'EXTRA1'
p1644
I5151
sS'EXTRA2'
p1645
I5152
sS'EVIDU'
p1646
I5031
sS'DRAFTFE'
p1647
I786
sS'COLMSLM'
p1648
I249
sS'HOURLY'
p1649
I2178
sS'OWNHH1'
p1650
I2904
sS'TRAVELUS'
p1651
I3031
sS'ETHID1'
p1652
I1611
sS'CHLDLOVE'
p1653
I5066
sS'HARMONY'
p1654
I2127
sS'JOBPEOP'
p1655
I546
sS'ASNCOM'
p1656
I2373
sS'TYPUNION'
p1657
I3119
sS'FRDFUN'
p1658
I1435
sS'MP3'
p1659
I2652
sS'HRSRELAX'
p1660
I2790
sS'CMPRGMNG'
p1661
I3551
sS'FREEEXP1'
p1662
I2677
sS'FREEEXP3'
p1663
I2679
sS'FREEEXP2'
p1664
I2678
sS'TRTGAY'
p1665
I1420
sS'RAISEFAV'
p1666
I1335
sS'AIDSDED2'
p1667
I4975
sS'AIDSDED3'
p1668
I4981
sS'DIFSTAND'
p1669
I3003
sS'ADDOCMED'
p1670
I2947
sS'ETH3'
p1671
I5221
sS'ETH2'
p1672
I5220
sS'ETH1'
p1673
I5219
sS'SECJOB'
p1674
I4485
sS'CHLDNUM'
p1675
I604
sS'TECHWORK'
p1676
I4554
sS'PARGOVT'
p1677
I5055
sS'KDYRBRN8'
p1678
I1525
sS'KDYRBRN9'
p1679
I1526
sS'POLARYR7'
p1680
I3433
sS'KDYRBRN7'
p1681
I1524
sS'KDYRBRN4'
p1682
I1521
sS'KDYRBRN5'
p1683
I1522
sS'KDYRBRN2'
p1684
I1519
sS'KDYRBRN3'
p1685
I1520
sS'POLARYR1'
p1686
I3427
sS'KDYRBRN1'
p1687
I1518
sS'HRSHUMAN'
p1688
I1935
sS'ATTWEEK'
p1689
I5279
sS'BRKDOTH'
p1690
I2074
sS'SPYRBORN'
p1691
I1499
sS'JOBINC'
p1692
I533
sS'TYPNAT'
p1693
I3125
sS'BUYLAW'
p1694
I1876
sS'VETFAMNW'
p1695
I796
sS'GRPOTH'
p1696
I4193
sS'INUIT'
p1697
I3437
sS'WORLD2'
p1698
I350
sS'WORLD3'
p1699
I351
sS'WORLD1'
p1700
I349
sS'WORLD6'
p1701
I354
sS'SBYRBRN9'
p1702
I1579
sS'WORLD4'
p1703
I352
sS'WORLD5'
p1704
I353
sS'DOWN1'
p1705
I4157
sS'SBYRBRN5'
p1706
I1575
sS'SBYRBRN6'
p1707
I1576
sS'SBYRBRN7'
p1708
I1577
sS'SBYRBRN1'
p1709
I1571
sS'SBYRBRN2'
p1710
I1572
sS'SBYRBRN3'
p1711
I1573
sS'GENEDEF1'
p1712
I5047
sS'GENEDEF2'
p1713
I5048
sS'GRNECON'
p1714
I4682
sS'CIVIC'
p1715
I756
sS'SCITEXT'
p1716
I3334
sS'RACREL12'
p1717
I2449
sS'EDCSKILL'
p1718
I4561
sS'EDUCOP'
p1719
I225
sS'LENTTO'
p1720
I4201
sS'SPANENG'
p1721
I5538
sS'HONESTZ'
p1722
I485
sS'HRSMONEY'
p1723
I4510
sS'WWWWORLD'
p1724
I2486
sS'MHCLSOTH'
p1725
I3770
sS'ASNWRK'
p1726
I2375
sS'ACQNHHME'
p1727
I3610
sS'PAINFEEL'
p1728
I2737
sS'WWWCOWRK'
p1729
I2504
sS'ECOINFTX'
p1730
I3386
sS'RACFEW'
p1731
I378
sS'ADDOC'
p1732
I2946
sS'SEXSEX5'
p1733
I5026
sS'WORK12'
p1734
I2432
sS'DOCDECID'
p1735
I2759
sS'WORK10'
p1736
I5116
sS'IF68WHO'
p1737
I131
sS'SCIINFGW'
p1738
I3364
sS'TALKPOL'
p1739
I944
sS'FINDOUT'
p1740
I1356
sS'YRFRAT4'
p1741
I3152
sS'RACNEIGH'
p1742
I390
sS'YRFRAT1'
p1743
I3149
sS'YRFRAT3'
p1744
I3151
sS'YRFRAT2'
p1745
I3150
sS'IGNORWK'
p1746
I3020
sS'RACLIVE'
p1747
I371
sS'SPOTH16'
p1748
I340
sS'SPEVWORK'
p1749
I24
sS'RELHHD8'
p1750
I5378
sS'RELHHD9'
p1751
I5379
sS'RELHHD6'
p1752
I5376
sS'RELHHD7'
p1753
I5377
sS'RELHHD4'
p1754
I5374
sS'RELHHD5'
p1755
I5375
sS'RELHHD2'
p1756
I5372
sS'RELHHD3'
p1757
I5373
sS'RELHHD1'
p1758
I5371
sS'FININD1'
p1759
I2902
sS'DANGER'
p1760
I4532
sS'GENEABRT'
p1761
I5046
sS'ERA'
p1762
I692
sS'FAMINTJB'
p1763
I4922
sS'MELTPOT'
p1764
I1616
sS'WRKWELL'
p1765
I1321
sS'FRITIME'
p1766
I4147
sS'HAPMAR'
p1767
I418
sS'VIRUSES'
p1768
I3344
sS'MHHLPFAM'
p1769
I3749
sS'YOUMONEY'
p1770
I1317
sS'MTSCHL4'
p1771
I3264
sS'UNIONGOD'
p1772
I2128
sS'MTSCHL1'
p1773
I3261
sS'MTSCHL2'
p1774
I3262
sS'MTSCHL3'
p1775
I3263
sS'SHOUT'
p1776
I3011
sS'MHGVTHME'
p1777
I3757
sS'ENGNRSCI'
p1778
I3416
sS'WWWGFBF'
p1779
I2503
sS'SIBORDER'
p1780
I5039
sS'ACQWKASN'
p1781
I3621
sS'SATFRND'
p1782
I429
sS'BORED'
p1783
I758
sS'RELACTIV1'
p1784
I4635
sS'PAVISIT1'
p1785
I4172
sS'TUESDAY'
p1786
I5268
sS'PRAYERX'
p1787
I346
sS'PRAYERY'
p1788
I345
sS'HINUMOKY'
p1789
I769
sS'BUYINF12'
p1790
I2434
sS'BUGGING'
p1791
I5200
sS'ENGLAND'
p1792
I5447
sS'SECTERR'
p1793
I5176
sS'COLATH'
p1794
I231
sS'VISLIB'
p1795
I3468
sS'BRIBE'
p1796
I4911
sS'DRAFTCOL'
p1797
I789
sS'NUMFARM'
p1798
I3143
sS'WRKMUCH'
p1799
I1322
sS'LETDIE1'
p1800
I630
sS'DRAFTDEF'
p1801
I794
sS'TRTJOSE'
p1802
I1430
sS'LIVECOM'
p1803
I4161
sS'YRSCHL2'
p1804
I3185
sS'YRSCHL3'
p1805
I3186
sS'YRSCHL1'
p1806
I3184
sS'YRSCHL4'
p1807
I3187
sS'CLONING'
p1808
I3504
sS'MARFIN'
p1809
I4346
sS'COMTYPE'
p1810
I4734
sS'SMOKE'
p1811
I515
sS'GIVART'
p1812
I1954
sS'WHYJBEND'
p1813
I4573
sS'FINDWORK'
p1814
I4536
sS'TOOFAST'
p1815
I3323
sS'CLSENEI'
p1816
I4754
sS'HOMOSEX1'
p1817
I4589
sS'LACKINFO'
p1818
I3007
sS'WKCOMPTR'
p1819
I3886
sS'DOCVIG'
p1820
I2755
sS'SPARTS'
p1821
I4063
sS'OWNTHING'
p1822
I1149
sS'GRACE'
p1823
I303
sS'HLPMINFG'
p1824
I745
sS'MHDOMOVE'
p1825
I3706
sS'MALIVE1'
p1826
I1471
sS'LIBSOC'
p1827
I235
sS'HYPERLNK'
p1828
I2410
sS'FORMLTRN'
p1829
I2167
sS'FEHELP'
p1830
I687
sS'WHYPOOR3'
p1831
I1155
sS'WHYPOOR1'
p1832
I1153
sS'WHYPOOR4'
p1833
I1156
sS'SCIENTWK'
p1834
I3524
sS'MNILWHY1'
p1835
I2096
sS'MNILWHY2'
p1836
I2097
sS'MNILWHY3'
p1837
I2098
sS'IMPFREND'
p1838
I751
sS'CHNANG1'
p1839
I1784
sS'ACQWKGO'
p1840
I3635
sS'WWWRELIG'
p1841
I2484
sS'ACQMARIA'
p1842
I3588
sS'TYPHOBBY'
p1843
I3123
sS'MAWRKWRM'
p1844
I4323
sS'DISCAFFM'
p1845
I1691
sS'JOBSAT'
p1846
I4539
sS'MENHRT'
p1847
I1700
sS'DISCAFFW'
p1848
I1692
sS'VIOLWHTS'
p1849
I1173
sS'DISCAFFY'
p1850
I1641
sS'RACMOST'
p1851
I380
sS'WWWLIT'
p1852
I2496
sS'WEBTV'
p1853
I2396
sS'RPTPROBS'
p1854
I3004
sS'RELHH1'
p1855
I5394
sS'RELHH3'
p1856
I5396
sS'RELHH2'
p1857
I5395
sS'RELHH5'
p1858
I5398
sS'RELHH4'
p1859
I5397
sS'RELHH7'
p1860
I5400
sS'RELHH6'
p1861
I5399
sS'RELHH9'
p1862
I5402
sS'RELHH8'
p1863
I5401
sS'INFPUBTV'
p1864
I5075
sS'ATTRALLY'
p1865
I4851
sS'HRS2'
p1866
I4
sS'USUPSET'
p1867
I1812
sS'AMSPORTS'
p1868
I4777
sS'DAUTIME'
p1869
I4125
sS'TRBLLAW'
p1870
I2969
sS'KD8JWOTH'
p1871
I3818
sS'BROWSER1'
p1872
I2648
sS'GUNNER'
p1873
I779
sS'CAMWRK'
p1874
I5211
sS'SOLSERV'
p1875
I964
sS'KIDOUT'
p1876
I4029
sS'ALLOFLFE'
p1877
I3088
sS'NEXTGEN'
p1878
I3322
sS'PSYCMED5'
p1879
I2189
sS'PSYCMED4'
p1880
I2188
sS'PSYCMED7'
p1881
I2191
sS'PSYCMED6'
p1882
I2190
sS'PSYCMED1'
p1883
I2185
sS'PSYCMED3'
p1884
I2187
sS'PSYCMED2'
p1885
I2186
sS'BUYHOME'
p1886
I1878
sS'KD10RELIG'
p1887
I3806
sS'TOLDWORK'
p1888
I3918
sS'MOVESTAT'
p1889
I4761
sS'POLEFY11'
p1890
I3972
sS'TREAT10'
p1891
I2715
sS'TREAT11'
p1892
I2716
sS'CONFEDY'
p1893
I448
sS'MEDADDCT'
p1894
I2980
sS'SPISCO68'
p1895
I5425
sS'KIDVISIT'
p1896
I4170
sS'FEELASNS'
p1897
I2749
sS'COMPFIN'
p1898
I5204
sS'NUMBWFRD'
p1899
I1118
sS'PAINQOL'
p1900
I2733
sS'CARDO'
p1901
I4654
sS'USCITZN'
p1902
I5238
sS'SONVISIT'
p1903
I4128
sS'SAQSEX'
p1904
I5511
sS'REDCEHME'
p1905
I3839
sS'UNITED'
p1906
I1363
sS'VOLCHRTY'
p1907
I2887
sS'MEMYOUTH'
p1908
I952
sS'FEJOBIND'
p1909
I4329
sS'NUMSERV'
p1910
I3133
sS'FAIRWHTS'
p1911
I2283
sS'HSPGOVT'
p1912
I1651
sS'PARELIG'
p1913
I1046
sS'ORMEDDOC'
p1914
I2040
sS'YRCHURH6'
p1915
I3215
sS'NATAIDY'
p1916
I192
sS'NATAIDZ'
p1917
I203
sS'POVLINE'
p1918
I5153
sS'POLDISGN'
p1919
I2555
sS'WKBONUS'
p1920
I2833
sS'ERAINFO'
p1921
I698
sS'REALTOR1'
p1922
I1841
sS'ATTRACTD'
p1923
I3907
sS'SUISEX2'
p1924
I4993
sS'SUISEX3'
p1925
I4998
sS'HIVTEST2'
p1926
I5037
sS'HIVTEST1'
p1927
I5036
sS'PAIDLV1'
p1928
I4443
sS'REALTORE'
p1929
I1839
sS'REALTORD'
p1930
I1838
sS'REALTORF'
p1931
I1840
sS'REALTORA'
p1932
I1835
sS'REALTORC'
p1933
I1837
sS'REALTORB'
p1934
I1836
sS'MHDOFRND'
p1935
I3689
sS'AIDSAGE2'
p1936
I4977
sS'PROUDART'
p1937
I4784
sS'ABCHOOSE'
p1938
I4394
sS'NATCHLD'
p1939
I180
sS'USEDMNTL'
p1940
I2206
sS'SPYENEMY'
p1941
I5184
sS'DIVNOW'
p1942
I4366
sS'SETHOURS'
p1943
I4557
sS'WORRYJOB'
p1944
I4570
sS'WANTJOB'
p1945
I4507
sS'TESTDRUG'
p1946
I5199
sS'WORK30'
p1947
I2414
sS'KDWORK2'
p1948
I1556
sS'PAIDEMPS'
p1949
I3785
sS'ANCESTRS'
p1950
I4664
sS'UNDOCKID'
p1951
I1636
sS'HELPFRDS'
p1952
I4211
sS'RELCMFRT'
p1953
I2126
sS'DEFSPDR'
p1954
I742
sS'GIVSALES'
p1955
I4271
sS'DOTDATA'
p1956
I110
sS'COMPORN'
p1957
I5197
sS'EXTRAPAY'
p1958
I2861
sS'CONTIRSH'
p1959
I2296
sS'PADOTTHN'
p1960
I124
sS'PAYHARD'
p1961
I4314
sS'MHDISOTH'
p1962
I3774
sS'RPRTST1'
p1963
I4089
sS'RPRTST3'
p1964
I4090
sS'DOSPORTS'
p1965
I1398
sS'SAYGRACE'
p1966
I1062
sS'FEELBLKS'
p1967
I2748
sS'SOLNAT'
p1968
I973
sS'MAYRBORN'
p1969
I1472
sS'SCIMATH'
p1970
I3469
sS'BELVEDOC'
p1971
I2770
sS'WWWSP'
p1972
I2502
sS'OPERA'
p1973
I1382
sS'NEWJOB'
p1974
I4923
sS'KNOMENTL'
p1975
I5181
sS'POLINF12'
p1976
I2444
sS'HUSHREL3'
p1977
I3958
sS'HUSHREL2'
p1978
I3957
sS'HUSHREL1'
p1979
I3956
sS'EROSION'
p1980
I3479
sS'SCIENTHE'
p1981
I3520
sS'TAGSALES'
p1982
I1891
sS'INTERPOL'
p1983
I4855
sS'HELPSICK'
p1984
I829
sS'CAPPUN'
p1985
I252
sS'KIDSUFFR'
p1986
I4324
sS'TITHING'
p1987
I343
sS'OBEYS'
p1988
I465
sS'AMPROGRN'
p1989
I4740
sS'RACCHNG'
p1990
I709
sS'BETTROWN'
p1991
I2934
sS'SPETHNUM'
p1992
I5227
sS'COLOR'
p1993
I386
sS'COLOP'
p1994
I4023
sS'STRNGUN'
p1995
I4484
sS'GWPOL'
p1996
I3361
sS'POSTMAT1'
p1997
I4676
sS'POSTMAT2'
p1998
I4677
sS'COUSINS'
p1999
I4177
sS'LOSEJB12'
p2000
I3878
sS'RUDEWK'
p2001
I3024
sS'SUIWHO'
p2002
I4987
sS'PADEATH'
p2003
I731
sS'MHGVTDIS'
p2004
I3759
sS'ACQFMPRI'
p2005
I3664
sS'KNWSCI'
p2006
I3419
sS'SPDOTPRE'
p2007
I121
sS'ACQSOCS'
p2008
I3578
sS'RELNEG'
p2009
I3318
sS'YRJOBEND'
p2010
I4572
sS'KDIND80'
p2011
I1561
sS'RELAGENT'
p2012
I1842
sS'CONLABOR'
p2013
I436
sS'CONLABOY'
p2014
I449
sS'SELLHOME'
p2015
I1870
sS'EMPHLTH'
p2016
I3902
sS'OTHDUTY2'
p2017
I1309
sS'GEOMOBIL'
p2018
I4655
sS'H2OLESS'
p2019
I3840
sS'POLINT1'
p2020
I4872
sS'MHCREATV'
p2021
I3738
sS'MARSO'
p2022
I1209
sS'ACQVACON'
p2023
I3609
sS'POLCAM12'
p2024
I2451
sS'ACQVACOH'
p2025
I3604
sS'ACQNHWHT'
p2026
I3637
sS'INTETHN'
p2027
I5519
sS'WHENCOL'
p2028
I66
sS'FRNDCON4'
p2029
I1089
sS'FRNDCON5'
p2030
I1090
sS'FRNDCON2'
p2031
I1087
sS'FRNDCON3'
p2032
I1088
sS'FRNDCON1'
p2033
I1086
sS'SOLOTHER'
p2034
I978
sS'OWNBANKS'
p2035
I4073
sS'REXPERNC'
p2036
I4514
sS'ENGTHRTN'
p2037
I2316
sS'SPOTHER'
p2038
I333
sS'OBMEPAX'
p2039
I823
sS'BTHGRP2F'
p2040
I5480
sS'COLSOC'
p2041
I234
sS'UPSET1'
p2042
I4155
sS'UPSET2'
p2043
I4156
sS'EMPYEARS'
p2044
I1258
sS'MECHANIC'
p2045
I773
sS'MYWAYGOD'
p2046
I4665
sS'INDUSGEN'
p2047
I4715
sS'FIXHOME'
p2048
I1856
sS'ROMANCE'
p2049
I1666
sS'SOLYOUTH'
p2050
I969
sS'HRSPUB'
p2051
I1937
sS'CHURHSCH'
p2052
I1051
sS'VALWORK'
p2053
I1985
sS'EMPINPUT'
p2054
I3561
sS'IMMUNEMP'
p2055
I1631
sS'LAWYER1'
p2056
I1853
sS'GUN12'
p2057
I2452
sS'SCI30'
p2058
I2429
sS'ACQFMCOH'
p2059
I3650
sS'USWARY'
p2060
I5440
sS'IMMECON'
p2061
I1630
sS'ACQFMCON'
p2062
I3652
sS'SRCHENG'
p2063
I2407
sS'POLSGOD'
p2064
I4602
sS'STANDUP'
p2065
I1359
sS'CALLCOMP'
p2066
I2511
sS'ACQWKLIN'
p2067
I3647
sS'ACQWKLIB'
p2068
I3645
sS'NUMOTHER'
p2069
I3147
sS'AIDSHLTH'
p2070
I5005
sS'VPSU'
p2071
I5547
sS'WRKSLFST'
p2072
I1481
sS'MOVENEI'
p2073
I4759
sS'WAYRAISE'
p2074
I2007
sS'SPANINT'
p2075
I5537
sS'GUN'
p2076
I644
sS'MNTLSYM2'
p2077
I2063
sS'MNTLSYM3'
p2078
I2064
sS'AMOWNWAY'
p2079
I4791
sS'SPOTHJEW'
p2080
I334
sS'MEMFRAT'
p2081
I946
sS'SATHOBBY'
p2082
I427
sS'OVERSAMP'
p2083
I5534
sS'CONARMYY'
p2084
I456
sS'MEMPROF'
p2085
I959
sS'POLATTAK'
p2086
I657
sS'AIDSIDS'
p2087
I5008
sS'CLERGGOV'
p2088
I4605
sS'DISABLD7'
p2089
I3685
sS'DISABLD6'
p2090
I3684
sS'DISABLD5'
p2091
I3683
sS'DISABLD4'
p2092
I3682
sS'DISABLD3'
p2093
I3681
sS'DISABLD2'
p2094
I3680
sS'DISABLD1'
p2095
I3679
sS'LIBERATR'
p2096
I315
sS'BRASS'
p2097
I776
sS'OBVOL'
p2098
I818
sS'SPISCO88'
p2099
I5433
sS'BUYFIXES'
p2100
I1877
sS'RACESEE'
p2101
I5228
sS'NUMGIVEN'
p2102
I831
sS'KNWFORGN'
p2103
I3417
sS'SPANSELF'
p2104
I5536
sS'INCOME91'
p2105
I100
sS'STRREDPG'
p2106
I2853
sS'INCOME98'
p2107
I102
sS'MORAL12'
p2108
I2447
sS'NEWS30'
p2109
I2415
sS'KIDEMPTY'
p2110
I4365
sS'GOVCHEAT'
p2111
I4595
sS'DOWNRELY'
p2112
I2731
sS'BORNHOME'
p2113
I3030
sS'MAKEART'
p2114
I1390
sS'DAILY'
p2115
I2179
sS'MEMLIT'
p2116
I958
sS'CRTRHEAL'
p2117
I321
sS'CIDEAGE2'
p2118
I4959
sS'CIDEAGE3'
p2119
I4964
sS'CHLDSKLS'
p2120
I5072
sS'SEXEMP'
p2121
I4479
sS'FEJOBOP'
p2122
I4009
sS'REGGAE'
p2123
I1384
sS'DIVKIDS'
p2124
I4369
sS'ABRAPE'
p2125
I588
sS'BUYINFGN'
p2126
I2549
sS'CHURHPOW'
p2127
I4606
sS'WANTBEST'
p2128
I4217
sS'COMPOTH'
p2129
I2596
sS'GMBIZ'
p2130
I3492
sS'MEMOTHER'
p2131
I961
sS'EARTHSUN'
p2132
I3348
sS'WWWHRW'
p2133
I2595
sS'KNWECON'
p2134
I3418
sS'WWWHRO'
p2135
I2611
sS'WWWHRH'
p2136
I2582
sS'MEMFARM'
p2137
I957
sS'GIVEARTS'
p2138
I1125
sS'JOBVSHME'
p2139
I1347
sS'INTLTEST'
p2140
I1268
sS'SATFAM'
p2141
I428
sS'SLSMNSHP'
p2142
I3550
sS'LOSTJOBS'
p2143
I3885
sS'WRKTIME'
p2144
I2826
sS'FEWTRSTY'
p2145
I4903
sS'TEMPGEN'
p2146
I4721
sS'FECOLOP'
p2147
I4008
sS'KD13RELIG'
p2148
I3809
sS'MAJEW'
p2149
I1044
sS'BTHGRP2E'
p2150
I5479
sS'BTHGRP2D'
p2151
I5478
sS'GRNTAXES'
p2152
I4694
sS'ACQVAGAY'
p2153
I3612
sS'BTHGRP2A'
p2154
I5475
sS'GOVEDOP'
p2155
I4277
sS'BTHGRP2C'
p2156
I5477
sS'BTHGRP2B'
p2157
I5476
sS'LEARNHME'
p2158
I1831
sS'CHKFINAN'
p2159
I5178
sS'OVRMEDKD'
p2160
I2966
sS'MUSIC30'
p2161
I2420
sS'MHDOPSYC'
p2162
I3692
sS'ALLERGIC'
p2163
I2933
sS'CARESELF'
p2164
I2897
sS'UPBREATH'
p2165
I3482
sS'PAEDUC'
p2166
I54
sS'GUNINFO'
p2167
I258
sS'AGEKDBRN'
p2168
I52
sS'PARTNRS5'
p2169
I5025
sS'OPCLOUT'
p2170
I4228
sS'PAYUNSKL'
p2171
I4252
sS'GIVRELIG'
p2172
I1949
sS'FEFIRM'
p2173
I578
sS'JOBPROMO'
p2174
I536
sS'INTINTL'
p2175
I3453
sS'AMISSUE1'
p2176
I1612
sS'MANVSEMP'
p2177
I2829
sS'JOBKEEP'
p2178
I538
sS'ANGRYEV'
p2179
I1756
sS'KD6RELIG'
p2180
I3802
sS'MNILTIME'
p2181
I2105
sS'MADATGOD'
p2182
I1077
sS'LIKEDIFF'
p2183
I294
sS'OCCTRAIN'
p2184
I2155
sS'RUMORWK'
p2185
I3021
sS'RWRKSCH'
p2186
I4378
sS'LEAVEJOB'
p2187
I4569
sS'CITVIEWS'
p2188
I4864
sS'ICESHEET'
p2189
I3435
sS'NATROAD'
p2190
I176
sS'PERMINO'
p2191
I2604
sS'CREATION'
p2192
I4892
sS'PERMINH'
p2193
I2575
sS'PERMINW'
p2194
I2590
sS'ACQFMASN'
p2195
I3646
sS'WHTWRK'
p2196
I2355
sS'ACQFMHME'
p2197
I3658
sS'TRTSOCS'
p2198
I1461
sS'NATDISIN'
p2199
I3675
sS'TALKEMP'
p2200
I2871
sS'WRKSCH'
p2201
I4335
sS'WILLWED1'
p2202
I1669
sS'WILLWED2'
p2203
I1670
sS'KD8RELIG'
p2204
I3804
sS'SPHOUR'
p2205
I5245
sS'PATRASNS'
p2206
I1194
sS'PATRSO'
p2207
I1196
sS'RELIGSP'
p2208
I4628
sS'ACTCHURH'
p2209
I993
sS'ACQVAHSP'
p2210
I3622
sS'PCLIT'
p2211
I1423
sS'WRKHRO'
p2212
I2607
sS'CHURHGRP'
p2213
I995
sS'EXCLDIMM'
p2214
I4944
sS'AGED'
p2215
I510
sS'ACQFMWHT'
p2216
I3666
sS'PORNINF'
p2217
I619
sS'IMPKIDS'
p2218
I1447
sS'RCLOSE5'
p2219
I837
sS'RCLOSE4'
p2220
I836
sS'PAINFAM'
p2221
I2734
sS'RCLOSE1'
p2222
I833
sS'RCLOSE3'
p2223
I835
sS'RCLOSE2'
p2224
I834
sS'WKSTRESS'
p2225
I3017
sS'IMPPOL'
p2226
I754
sS'FAMSUFFR'
p2227
I4325
sS'YRUNION2'
p2228
I3170
sS'YRUNION3'
p2229
I3171
sS'YRUNION1'
p2230
I3169
sS'YRUNION4'
p2231
I3172
sS'STARTBIZ'
p2232
I3781
sS'FSTSPMED'
p2233
I1497
sS'PASTPAY'
p2234
I3874
sS'LOSEJOB5'
p2235
I3920
sS'AGE5'
p2236
I932
sS'AGE4'
p2237
I931
sS'AGE3'
p2238
I930
sS'AGE2'
p2239
I929
sS'AGE1'
p2240
I928
sS'PAYSAME'
p2241
I4477
sS'NUMNAT'
p2242
I3142
sS'ACTHOBBY'
p2243
I987
sS'SHOPMOVE'
p2244
I1139
sS'OPRICH'
p2245
I4005
sS'FATHER'
p2246
I311
sS'RACNAME'
p2247
I387
sS'USUN'
p2248
I5442
sS'JOBSEC'
p2249
I534
sS'ELECFAIR'
p2250
I4884
sS'FAMBUDGT'
p2251
I4397
sS'FRINGE1'
p2252
I1336
sS'FRINGE2'
p2253
I1337
sS'FRINGE3'
p2254
I1338
sS'FRINGE4'
p2255
I1339
sS'FRINGE5'
p2256
I1340
sS'FRINGE6'
p2257
I1341
sS'FRINGE7'
p2258
I1342
sS'FRINGE8'
p2259
I1343
sS'INTACCSS'
p2260
I2625
sS'CHANGE2'
p2261
I4160
sS'CUTSPDFG'
p2262
I747
sS'ACQFMLIB'
p2263
I3660
sS'SIBVISIT'
p2264
I4166
sS'RWRKNOKD'
p2265
I4376
sS'MARHISP'
p2266
I1207
sS'SEXUNION'
p2267
I3911
sS'HAVEINFO'
p2268
I2817
sS'MHFRIGHT'
p2269
I3779
sS'AGERELEX'
p2270
I3067
sS'SATJOB1'
p2271
I2856
sS'DWELL5'
p2272
I3926
sS'SATJOB7'
p2273
I4431
sS'WKYNGSCL'
p2274
I4459
sS'FEWRKSUP'
p2275
I4381
sS'EMPHLTH2'
p2276
I3928
sS'CHNGTME'
p2277
I2784
sS'EMPHLTH1'
p2278
I3927
sS'PHASE'
p2279
I5535
sS'SPFUND'
p2280
I337
sS'CONUNION'
p2281
I4289
sS'CANINF6'
p2282
I2994
sS'CANINF7'
p2283
I2995
sS'CANINF4'
p2284
I2992
sS'CANINF5'
p2285
I2993
sS'CANINF2'
p2286
I2990
sS'CANINF3'
p2287
I2991
sS'CANINF1'
p2288
I2989
sS'CANINF8'
p2289
I2996
sS'CANINF9'
p2290
I2997
sS'MONFOUND'
p2291
I1928
sS'PIKUPSEX'
p2292
I5014
sS'COURTSY'
p2293
I261
sS'ADHOSMED'
p2294
I2953
sS'EXCELART'
p2295
I1425
sS'SELFIRST'
p2296
I1360
sS'INCENTIV'
p2297
I4235
sS'MHSTRESS'
p2298
I3712
sS'WHYNOJB1'
p2299
I3894
sS'MOSTIMP4'
p2300
I1466
sS'MOSTIMP3'
p2301
I1465
sS'MOSTIMP2'
p2302
I1463
sS'MOSTIMP1'
p2303
I1459
sS'ANGRYWRK'
p2304
I1752
sS'MHINTL'
p2305
I3734
sS'MNTLIMP3'
p2306
I2061
sS'MNTLIMP2'
p2307
I2060
sS'MNTLIMP1'
p2308
I2059
sS'ACQJANS'
p2309
I3599
sS'NEWS12'
p2310
I2455
sS'ECONPAST'
p2311
I1658
sS'UNMONEY'
p2312
I4495
sS'SOCDIF1'
p2313
I1157
sS'REDUCEMP'
p2314
I4517
sS'ANTIREL'
p2315
I4641
sS'SOCDIF2'
p2316
I1158
sS'SOCDIF4'
p2317
I1160
sS'EVSTRAY'
p2318
I5028
sS'ADOPTION'
p2319
I1886
sS'GRPPOL'
p2320
I4187
sS'FEINFLU'
p2321
I1026
sS'EVPAIDSX'
p2322
I5027
sS'BLKREL'
p2323
I2359
sS'CONSCI'
p2324
I441
sS'MUSTDOC'
p2325
I2048
sS'AMFEEL'
p2326
I4771
sS'GENEVIG1'
p2327
I3035
sS'CARSGEN'
p2328
I4710
sS'GENEVIG2'
p2329
I3036
sS'CONSENT'
p2330
I5523
sS'HSPHOUSE'
p2331
I1229
sS'ACQWKPRI'
p2332
I3653
sS'SBDEG'
p2333
I1600
sS'MASTERSP'
p2334
I318
sS'RELSPRT'
p2335
I4668
sS'VOLEDUC'
p2336
I1903
sS'DOCSWTCH'
p2337
I2775
sS'FEIMP'
p2338
I576
sS'JEWSSCHL'
p2339
I2362
sS'SEENMNTL'
p2340
I2184
sS'LOCVOTE'
p2341
I1022
sS'MINDBODY'
p2342
I295
sS'PAIDLVPY'
p2343
I4444
sS'NUMSCHL'
p2344
I3139
sS'TOTREC'
p2345
I1968
sS'POLTOUGH'
p2346
I2467
sS'CHATMIN'
p2347
I2404
sS'UNAUNUM'
p2348
I4135
sS'MHHLPREL'
p2349
I3751
sS'PROTEST'
p2350
I2917
sS'HITROBBR'
p2351
I652
sS'OTCMED'
p2352
I2035
sS'WRKINDP'
p2353
I4490
sS'EATOUT'
p2354
I5262
sS'FORSPY'
p2355
I5213
sS'HSCARING'
p2356
I4021
sS'PAIDLV'
p2357
I4442
sS'HISPCOM'
p2358
I2368
sS'MAOCC10'
p2359
I47
sS'BORROW2'
p2360
I4154
sS'BORROW1'
p2361
I4153
sS'BEAUSPRT'
p2362
I2130
sS'NUMCONG'
p2363
I1128
sS'MHDORX'
p2364
I3696
sS'BSTVISIT'
p2365
I4185
sS'FIGHTLND'
p2366
I777
sS'BRKDHLP1'
p2367
I2090
sS'BRKDHLP3'
p2368
I2092
sS'BRKDHLP2'
p2369
I2091
sS'TECSUP'
p2370
I2642
sS'RUNPOWER'
p2371
I4103
sS'PATRJEWS'
p2372
I1192
sS'ROLEY'
p2373
I476
sS'ROLEZ'
p2374
I489
sS'INTLSO'
p2375
I1184
sS'INFLUHSP'
p2376
I1224
sS'RELLIFE'
p2377
I2121
sS'COLSCINM'
p2378
I3355
sS'BIRTHMO'
p2379
I5461
sS'XMARSEX1'
p2380
I4588
sS'SPETHNIC'
p2381
I5223
sS'SPDRUGS'
p2382
I5086
sS'MEDSAVTX'
p2383
I2970
sS'CONTBLK'
p2384
I2292
sS'KD4RELIG'
p2385
I3800
sS'COOKING1'
p2386
I4414
sS'LITREAD'
p2387
I2500
sS'PROBHLP1'
p2388
I2000
sS'PROBHLP3'
p2389
I2002
sS'PROBHLP2'
p2390
I2001
sS'HRFAMBIZ'
p2391
I1894
sS'IMMJOBS'
p2392
I4799
sS'RACCHURH'
p2393
I385
sS'MHGENES'
p2394
I3713
sS'PHYSCSCI'
p2395
I3410
sS'VOTE68'
p2396
I129
sS'MADAT10'
p2397
I1767
sS'STRESSES'
p2398
I2008
sS'WKDECIDE'
p2399
I2811
sS'VOLARTS'
p2400
I2150
sS'PENGUINS'
p2401
I3444
sS'SBIND80'
p2402
I1607
sS'CHLDHLTH'
p2403
I5071
sS'POPESPKY'
p2404
I5525
sS'DIRECTNS'
p2405
I2892
sS'POPESPKS'
p2406
I323
sS'HOWFREE'
p2407
I2680
sS'OTHBEST'
p2408
I2303
sS'BOYORGRL'
p2409
I3341
sS'FEPOL'
p2410
I574
sS'UNPROG'
p2411
I1249
sS'NATEDUC'
p2412
I171
sS'FAMPER4'
p2413
I5132
sS'FAMPER5'
p2414
I5133
sS'FAMPER6'
p2415
I5134
sS'FAMPER1'
p2416
I5129
sS'GRANLANG'
p2417
I2308
sS'FAMPER3'
p2418
I5131
sS'MHRESOTH'
p2419
I3773
sS'MHPHYSCL'
p2420
I3718
sS'EMFAMLOC'
p2421
I2618
sS'MHBRAIN'
p2422
I3710
sS'KDEVWORK'
p2423
I1557
sS'KIDJOY'
p2424
I4361
sS'FINRELA'
p2425
I557
sS'EVMHP'
p2426
I2095
sS'FIRSTSLF'
p2427
I4297
sS'RACPUSH'
p2428
I368
sS'SATFAM7'
p2429
I4432
sS'HRSART'
p2430
I1939
sS'CLOSE12'
p2431
I838
sS'CLOSE13'
p2432
I839
sS'CLOSE14'
p2433
I840
sS'CLOSE15'
p2434
I841
sS'MESERVE'
p2435
I762
sS'RACTEACH'
p2436
I707
sS'MAR4'
p2437
I5308
sS'MAR5'
p2438
I5314
sS'MAR6'
p2439
I5320
sS'MAR7'
p2440
I5326
sS'MAR1'
p2441
I5290
sS'MAR2'
p2442
I5296
sS'MAR3'
p2443
I5302
sS'MEETING'
p2444
I2461
sS'MAR9'
p2445
I5338
sS'PARLANG'
p2446
I2307
sS'DIVLAWY'
p2447
I611
sS'WORDE'
p2448
I5254
sS'NIRVANA'
p2449
I4663
sS'WORDG'
p2450
I5256
sS'WORDF'
p2451
I5255
sS'WORDA'
p2452
I5250
sS'WORDC'
p2453
I5252
sS'TOTMONEY'
p2454
I1316
sS'MADAT19'
p2455
I1776
sS'WORDI'
p2456
I5258
sS'WORDH'
p2457
I5257
sS'WORKJEWS'
p2458
I1168
sS'WORDJ'
p2459
I5259
sS'GENEGOOD'
p2460
I5042
sS'CSHUTYP10'
p2461
I5542
sS'PLACEWRK'
p2462
I4558
sS'ORRXMED'
p2463
I2046
sS'ODDS2'
p2464
I3338
sS'ODDS1'
p2465
I3337
sS'EARNMORE'
p2466
I1680
sS'BLUGRASS'
p2467
I1371
sS'SCIBNFTS'
p2468
I3330
sS'USEPSYC3'
p2469
I2194
sS'USEPSYC1'
p2470
I2192
sS'USEPSYC4'
p2471
I2195
sS'FRNDKNOW'
p2472
I945
sS'THNKSELF'
p2473
I498
sS'DOWN2A'
p2474
I4199
sS'HELPAWAY'
p2475
I2890
sS'BLKGAINS'
p2476
I1025
sS'TALKEDTO'
p2477
I4202
sS'HRSRELIG'
p2478
I1934
sS'HIT'
p2479
I641
sS'RACTHINK'
p2480
I402
sS'TVHOURS'
p2481
I674
sS'ACQKAREN'
p2482
I3574
sS'MUSTWORK'
p2483
I2783
sS'GRNSOL'
p2484
I4695
sS'ACTFARM'
p2485
I990
sS'SEXPROMO'
p2486
I1287
sS'OCC10'
p2487
I15
sS'GIVCHRTY'
p2488
I2888
sS'SATFIXES'
p2489
I1865
sS'VETFAM'
p2490
I795
sS'SPWKBABY'
p2491
I4404
sS'CLASSICL'
p2492
I1375
sS'ARTGN'
p2493
I2558
sS'RAP'
p2494
I1383
sS'CLASSICS'
p2495
I1415
sS'MEOVRWRK'
p2496
I4384
sS'EVDIV'
p2497
I4373
sS'ADFORJOB'
p2498
I4580
sS'ENGAGRNK'
p2499
I3496
sS'WHTCLS'
p2500
I2356
sS'OTH5'
p2501
I5150
sS'OTH4'
p2502
I5149
sS'OTH1'
p2503
I5146
sS'UNDOCCOL'
p2504
I1635
sS'OTH3'
p2505
I5148
sS'OTH2'
p2506
I5147
sS'POLNEUTL'
p2507
I2457
sS'FARESO'
p2508
I1190
sS'REACTOK'
p2509
I1800
sS'PILL'
p2510
I606
sS'POLESCAP'
p2511
I656
sS'OCC'
p2512
I6
sS'LITSITE'
p2513
I2497
sS'FIRSTYOU'
p2514
I4210
sS'COMDATA'
p2515
I5193
sS'RACWORK'
p2516
I1232
sS'EGYPT'
p2517
I5452
sS'SADBLUE'
p2518
I3053
sS'YEARBIZ'
p2519
I3784
sS'JOBPLACE'
p2520
I2633
sS'GUNSDRNK'
p2521
I3673
sS'PARTYID1'
p2522
I938
sS'PARTYID3'
p2523
I940
sS'PARTYID2'
p2524
I939
sS'HELPORG'
p2525
I1324
sS'DECSELF'
p2526
I1071
sS'XMOVIE1'
p2527
I625
sS'SAMPCODE'
p2528
I5532
sS'BRKDIMP3'
p2529
I2070
sS'BRKDIMP2'
p2530
I2069
sS'BRKDIMP1'
p2531
I2068
sS'ARREST'
p2532
I668
sS'HOMEYEAR'
p2533
I1830
sS'KNOWSOL'
p2534
I3833
sS'KD1RELIG'
p2535
I3797
sS'NATMASS'
p2536
I178
sS'FAITH2'
p2537
I1083
sS'COMYEAR'
p2538
I4219
sS'PHYSICAL'
p2539
I1271
sS'SRCHWRK'
p2540
I5210
sS'SIBDEATH'
p2541
I734
sS'CONMEDIC'
p2542
I438
sS'WHYLEAVE'
p2543
I3875
sS'MORENUKE'
p2544
I807
sS'CONMEDIY'
p2545
I451
sS'SEESAND'
p2546
I3485
sS'MHSEEPUB'
p2547
I3778
sS'SBSEX3'
p2548
I1564
sS'CAREGRP'
p2549
I997
sS'BACKPAIN'
p2550
I2849
sS'UNFAMTEN'
p2551
I4498
sS'SCMED'
p2552
I3371
sS'PHYSWRK'
p2553
I4529
sS'PREDETER'
p2554
I4618
sS'DISCPOL'
p2555
I4875
sS'NUMINFRM'
p2556
I3148
sS'FEJOIN'
p2557
I583
sS'SPSIBS'
p2558
I1508
sS'PRAYFREQ'
p2559
I4633
sS'INTFARM'
p2560
I3454
sS'OPABLE'
p2561
I4225
sS'GIVJUDGE'
p2562
I4273
sS'GRPSPORT'
p2563
I4190
sS'HLPOTHS'
p2564
I4491
sS'EQCLOSE'
p2565
I832
sS'SCIENTBR'
p2566
I3526
sS'ADVISOR1'
p2567
I903
sS'ADVISOR2'
p2568
I904
sS'GENES'
p2569
I3480
sS'ADVISOR4'
p2570
I906
sS'ADVISOR5'
p2571
I907
sS'MEMSPORT'
p2572
I951
sS'SCIENTBE'
p2573
I3522
sS'IMPRVDIS'
p2574
I2935
sS'RHIINC'
p2575
I4520
sS'WOMENBEN'
p2576
I1696
sS'RELSP10'
p2577
I5417
sS'RELSP11'
p2578
I5418
sS'RELSP12'
p2579
I5419
sS'RELSP13'
p2580
I5420
sS'RELSP14'
p2581
I5421
sS'MNTLDIF'
p2582
I2208
sS'NEEDYOTH'
p2583
I1996
sS'DOTPRES'
p2584
I115
sS'CAPIMP'
p2585
I253
sS'CHLDHRT'
p2586
I1702
sS'POLMAG1'
p2587
I2543
sS'POLMAG2'
p2588
I2544
sS'TRTCOPS'
p2589
I1414
sS'WWWPERSN'
p2590
I2501
sS'HURTOTH'
p2591
I2026
sS'INVESTGN'
p2592
I2550
sS'TVMOV30'
p2593
I2422
sS'SPKMIL'
p2594
I242
sS'SITEYRS'
p2595
I2165
sS'NUMPROF'
p2596
I3145
sS'GODLOVE'
p2597
I2129
sS'PROMTEFR'
p2598
I2822
sS'PAWRKSLF'
p2599
I36
sS'WKFREEDM'
p2600
I2818
sS'BIOSCI'
p2601
I3413
sS'AGERBORN'
p2602
I3070
sS'MNTLOTH'
p2603
I2065
sS'INCMINW'
p2604
I2586
sS'PROUDECO'
p2605
I4780
sS'DRINK8'
p2606
I3108
sS'SOCSCI'
p2607
I3409
sS'RACINC'
p2608
I395
sS'DRINK5'
p2609
I3109
sS'DRINK1'
p2610
I3111
sS'DRINK3'
p2611
I3110
sS'CHARACTR'
p2612
I2005
sS'VOTE08'
p2613
I159
sS'ANHEAT'
p2614
I3473
sS'VOTE00'
p2615
I153
sS'VOTE04'
p2616
I156
sS'FIDGETY'
p2617
I2133
sS'PROUDMIL'
p2618
I4785
sS'FEWORKIF'
p2619
I701
sS'GODGUIDE'
p2620
I3093
sS'SELFISH'
p2621
I3056
sS'PILLOKY'
p2622
I5524
sS'GIVMASON'
p2623
I4259
sS'GRWTHELP'
p2624
I4688
sS'AFFRMACT'
p2625
I406
sS'TRTATTND'
p2626
I1408
sS'SCIPRY'
p2627
I1030
sS'INTRACE1'
p2628
I5464
sS'INTRACE2'
p2629
I5465
sS'INTRACE3'
p2630
I5466
sS'BRKDSYM2'
p2631
I2072
sS'BRKDSYM3'
p2632
I2073
sS'BRKDSYM1'
p2633
I2071
sS'LESSREG'
p2634
I4052
sS'SPFALOOK'
p2635
I4462
sS'WWWMIN'
p2636
I2402
sS'SPEVDIV'
p2637
I4374
sS'KIDBEAT'
p2638
I4031
sS'SCICHNG'
p2639
I1029
sS'ENGDO'
p2640
I3530
sS'RELSCH'
p2641
I1135
sS'STAIRS'
p2642
I2695
sS'OTHSELF'
p2643
I1017
sS'CLOSE35'
p2644
I846
sS'IMPFINAN'
p2645
I1443
sS'HAVCHLD'
p2646
I2911
sS'FEPRES'
p2647
I573
sS'IMPSELF'
p2648
I1457
sS'WHYJBCT1'
p2649
I3876
sS'WHYJBCT2'
p2650
I3877
sS'NANOKNW1'
p2651
I3449
sS'NANOKNW2'
p2652
I3450
sS'EMCHURCH'
p2653
I2621
sS'MRMOM'
p2654
I4383
sS'BWFRIEND'
p2655
I1119
sS'ACQFMLIN'
p2656
I3661
sS'FISHEXP1'
p2657
I3486
sS'FISHEXP2'
p2658
I3487
sS'CARBUY1'
p2659
I1826
sS'SPMARNUM'
p2660
I1500
sS'TRTKEITH'
p2661
I1434
sS'WRKNOKID'
p2662
I4333
sS'GRWINGUP'
p2663
I2957
sS'MADAT14'
p2664
I1771
sS'CARBUYA'
p2665
I1819
sS'KIDNEEDY'
p2666
I4030
sS'CARBUYC'
p2667
I1821
sS'CARBUYB'
p2668
I1820
sS'CARBUYE'
p2669
I1823
sS'CARBUYD'
p2670
I1822
sS'CARBUYG'
p2671
I1825
sS'CARBUYF'
p2672
I1824
sS'FRINGE9'
p2673
I1344
sS'DOC20A'
p2674
I2988
sS'TOTYOUTH'
p2675
I1972
sS'CONJUDGY'
p2676
I453
sS'MAPA'
p2677
I317
sS'HSETH'
p2678
I2394
sS'CHANGE1'
p2679
I4159
sS'FAMFINAN'
p2680
I1897
sS'MONREC'
p2681
I1923
sS'CUTHOURS'
p2682
I4055
sS'DRINKMAX'
p2683
I3106
sS'ADVANTGE'
p2684
I4218
sS'CHLDSUP'
p2685
I5069
sS'RECYCLE'
p2686
I4726
sS'SUFADULT'
p2687
I2963
sS'NOCHEER'
p2688
I2131
sS'AMANCSTR'
p2689
I4819
sS'EXECRNK'
p2690
I4320
sS'MINTHREE'
p2691
I5159
sS'CONJUDGE'
p2692
I440
sS'CONBUSY'
p2693
I445
sS'TYPYOUTH'
p2694
I3121
sS'PARTORG'
p2695
I2160
sS'EMAILHME'
p2696
I5207
sS'FSTSPDEG'
p2697
I1495
sS'OTHRESP'
p2698
I1801
sS'MEDSYMPS'
p2699
I2979
sS'HAPPY7'
p2700
I4430
sS'HUCLEAN'
p2701
I2672
sS'OBFEWAR'
p2702
I826
sS'PERSPACE'
p2703
I3008
sS'AIDNEEDY'
p2704
I4024
sS'POLNEW'
p2705
I2462
sS'OTHERSEX'
p2706
I5016
sS'NUMEMPS5'
p2707
I3790
sS'BRKDDUR'
p2708
I2094
sS'ERATELL'
p2709
I693
sS'PRIVENT'
p2710
I4675
sS'JOBSAFE'
p2711
I550
sS'DWELOWN'
p2712
I5249
sS'HAPROM'
p2713
I1668
sS'WORKFARE'
p2714
I1211
sS'FINLCOUN'
p2715
I3552
sS'KINDPERS'
p2716
I3055
sS'NOTTHINK'
p2717
I3101
sS'CONROCK'
p2718
I1385
sS'LNGTHINV'
p2719
I5516
sS'SEXHAR'
p2720
I4396
sS'OBFEPAX'
p2721
I825
sS'AIDSSEX'
p2722
I4970
sS'CONSOC'
p2723
I4291
sS'YRNAT1'
p2724
I3194
sS'YRNAT2'
p2725
I3195
sS'YRNAT3'
p2726
I3196
sS'ACQCON'
p2727
I3620
sS'ABROAD'
p2728
I4805
sS'NOICECAP'
p2729
I3446
sS'USCLASS4'
p2730
I220
sS'RACDIF3'
p2731
I713
sS'USCLASS6'
p2732
I222
sS'AMENGLSH'
p2733
I4768
sS'USCLASS1'
p2734
I217
sS'RACDIF4'
p2735
I714
sS'USCLASS3'
p2736
I219
sS'USCLASS8'
p2737
I224
sS'RACMIX'
p2738
I389
sS'TRTBRNDA'
p2739
I1410
sS'FRISEX'
p2740
I4145
sS'FAMBIZ'
p2741
I1895
sS'HSCHEM'
p2742
I3358
sS'SKIPWORK'
p2743
I3018
sS'FAILURE'
p2744
I2965
sS'MHEXPOTH'
p2745
I3776
sS'SCIIMP6'
p2746
I3406
sS'ENGNUKE'
p2747
I3495
sS'SEXORNT'
p2748
I5038
sS'JUSTPAY'
p2749
I4315
sS'NEWS'
p2750
I673
sS'RUNBANKS'
p2751
I4105
sS'SCIIMP3'
p2752
I3403
sS'MNTLDENY'
p2753
I2209
sS'MEMSERV'
p2754
I947
sS'POLMURDR'
p2755
I655
sS'RELVISIT'
p2756
I4139
sS'GOMUSIC'
p2757
I1395
sS'PRODCTIV'
p2758
I2807
sS'PORN30'
p2759
I2427
sS'HUBBYWRK'
p2760
I4331
sS'REVOLTRS'
p2761
I4085
sS'SPDOTSVP'
p2762
I120
sS'MHLESSOP'
p2763
I3731
sS'GETMAR'
p2764
I2913
sS'HELPOLD'
p2765
I4895
sS'EMAILLNK'
p2766
I2626
sS'PROUD'
p2767
I1741
sS'FEFAM'
p2768
I689
sS'ETHSPKOK'
p2769
I1620
sS'RELHRS1'
p2770
I1126
sS'RELHRS2'
p2771
I1127
sS'TRTBLACK'
p2772
I1409
sS'WRLDGOVT'
p2773
I4789
sS'ENHINFNK'
p2774
I3497
sS'RICHEDUC'
p2775
I4307
sS'RELSP3'
p2776
I5410
sS'NUMEMPLY'
p2777
I4548
sS'SRCHENG2'
p2778
I2529
sS'FNDJOB5'
p2779
I1263
sS'FNDJOB6'
p2780
I1264
sS'SRCHENG1'
p2781
I2528
sS'FNDJOB1'
p2782
I1259
sS'FNDJOB2'
p2783
I1260
sS'FNDJOB3'
p2784
I1261
sS'RYRSFIRM'
p2785
I4511
sS'FNDJOB8'
p2786
I1266
sS'FNDJOB9'
p2787
I1267
sS'RELIG'
p2788
I271
sS'WEALTH'
p2789
I3564
sS'VIGFRND'
p2790
I2022
sS'HUNTBEAR'
p2791
I3438
sS'DEFWRKNW'
p2792
I813
sS'RPRTST35'
p2793
I4092
sS'DENOM16'
p2794
I326
sS'ADVSUP'
p2795
I2523
sS'WHOTEACH'
p2796
I1648
sS'INFLUSO'
p2797
I1225
sS'IF92WHO'
p2798
I149
sS'CIDESEX'
p2799
I4953
sS'TYPFARM'
p2800
I3126
sS'SEXFREQ2'
p2801
I5020
sS'SEXFREQ1'
p2802
I5019
sS'PILLOK'
p2803
I608
sS'PROUDPOL'
p2804
I4779
sS'GRNPROG'
p2805
I4686
sS'ASNREL'
p2806
I2374
sS'SOCSECFX'
p2807
I2260
sS'POLBSTGW'
p2808
I3368
sS'POVSCHS'
p2809
I1214
sS'POLBSTGM'
p2810
I3398
sS'MHDODIET'
p2811
I3704
sS'TYPDEALR'
p2812
I1818
sS'ACQWKHME'
p2813
I3639
sS'JOBINTER'
p2814
I543
sS'MSLMTEMP'
p2815
I361
sS'DOWNFEEL'
p2816
I2732
sS'ADHDKNOW'
p2817
I2973
sS'PAOTH'
p2818
I1048
sS'IMMCOSTS'
p2819
I4828
sS'AIDSKNOW'
p2820
I4967
sS'ACQMILS'
p2821
I3585
sS'MOVEUSA'
p2822
I4762
sS'GASREGS'
p2823
I3370
sS'MHUNSURE'
p2824
I3733
sS'ACQWKUNE'
p2825
I3655
sS'POSTLF10'
p2826
I293
sS'GRNINTL'
p2827
I4744
sS'SPPOLICE'
p2828
I4058
sS'TIREDHM1'
p2829
I4454
sS'COMPLIB'
p2830
I2598
sS'UNRELAT'
p2831
I89
sS'KD12JWOTH'
p2832
I3822
sS'VALHLTH'
p2833
I1977
sS'TRUSTDOC'
p2834
I2269
sS'TIREDHME'
p2835
I4426
sS'SBALIVE8'
p2836
I1596
sS'SBALIVE9'
p2837
I1597
sS'SBALIVE2'
p2838
I1590
sS'SBALIVE3'
p2839
I1591
sS'CONAGE'
p2840
I4292
sS'SBALIVE6'
p2841
I1594
sS'SBALIVE7'
p2842
I1595
sS'SBALIVE4'
p2843
I1592
sS'SBALIVE5'
p2844
I1593
sS'SAQISSP'
p2845
I5510
sS'MOREGOOD'
p2846
I3049
sS'WHYNOJB2'
p2847
I3895
sS'ACTSCHL'
p2848
I986
sS'GODCLOSE'
p2849
I3098
sS'CIDEWHO3'
p2850
I4962
sS'CIDEWHO2'
p2851
I4957
sS'BLKSIMP'
p2852
I408
sS'KDPRES80'
p2853
I1559
sS'HELPHLTH'
p2854
I4894
sS'JOIN16'
p2855
I1054
sS'NATCITY'
p2856
I168
sS'MUSICGET'
p2857
I2475
sS'KIDTRBLE'
p2858
I4360
sS'PADOTGED'
p2859
I125
sS'CHLDPROB'
p2860
I2924
sS'REVSPEAK'
p2861
I3987
sS'EATGM'
p2862
I3400
sS'ASKELSE'
p2863
I2644
sS'MONHLTH'
p2864
I1917
sS'NOTUPSET'
p2865
I1749
sS'MHVIOOTH'
p2866
I3766
sS'KDSEX7'
p2867
I1515
sS'HRDSHP1'
p2868
I5122
sS'HRDSHP2'
p2869
I5123
sS'HRDSHP3'
p2870
I5124
sS'HRDSHP4'
p2871
I5125
sS'HRDSHP5'
p2872
I5126
sS'HRDSHP6'
p2873
I5127
sS'HRDSHP7'
p2874
I5128
sS'GRNMONEY'
p2875
I4732
sS'SOLUNION'
p2876
I967
sS'WRKYEARS'
p2877
I1254
sS'KDSEX9'
p2878
I1517
sS'KDSEX8'
p2879
I1516
sS'DONE911E'
p2880
I3850
sS'DONE911D'
p2881
I3848
sS'DONE911G'
p2882
I3854
sS'DONE911F'
p2883
I3852
sS'DONE911A'
p2884
I3842
sS'DONE911C'
p2885
I3846
sS'DONE911B'
p2886
I3844
sS'DONE911M'
p2887
I3866
sS'DONE911L'
p2888
I3864
sS'DONE911N'
p2889
I3868
sS'DONE911I'
p2890
I3858
sS'DONE911H'
p2891
I3856
sS'DONE911K'
p2892
I3862
sS'DONE911J'
p2893
I3860
sS'POLEFF15'
p2894
I4098
sS'POLEFF14'
p2895
I4097
sS'POLEFF17'
p2896
I4100
sS'POLEFF16'
p2897
I4099
sS'POLEFF11'
p2898
I4094
sS'POLEFF10'
p2899
I4047
sS'POLEFF13'
p2900
I4096
sS'POLEFF12'
p2901
I4095
sS'POLEFF19'
p2902
I4868
sS'POLEFF18'
p2903
I4867
sS'MEMPOLIT'
p2904
I949
sS'HRSINTL'
p2905
I1944
sS'MTGREEK3'
p2906
I3270
sS'MTGREEK2'
p2907
I3269
sS'MTGREEK1'
p2908
I3268
sS'HOMOCHNG'
p2909
I618
sS'VALFOUND'
p2910
I1988
sS'FEMARRY'
p2911
I4342
sS'OPRACE'
p2912
I4229
sS'HLTH5'
p2913
I5097
sS'HLTH4'
p2914
I5096
sS'HLTH7'
p2915
I5099
sS'HLTH6'
p2916
I5098
sS'HLTH1'
p2917
I5093
sS'HLTH3'
p2918
I5095
sS'HLTH2'
p2919
I5094
sS'GOVMENTL'
p2920
I2056
sS'GRWTHARM'
p2921
I4691
sS'HLTH8'
p2922
I5100
sS'WLTHIMM'
p2923
I1653
sS'UNMANREL'
p2924
I1349
sS'DOCINFO'
p2925
I2771
sS'OTHSSAME'
p2926
I4737
sS'RHLPSOC'
p2927
I4526
sS'SUIREG'
p2928
I4991
sS'LIVNOWED'
p2929
I4391
sS'MNTLHLTH'
p2930
I2846
sS'FORMLFIN'
p2931
I2168
sS'MUSTRET'
p2932
I4037
sS'SOCDIF3'
p2933
I1159
sS'HGUNLAW'
p2934
I3062
sS'EMOTFEEL'
p2935
I2742
sS'BIGBANG1'
p2936
I3553
sS'CIDEREG3'
p2937
I4966
sS'CIDEREG2'
p2938
I4961
sS'MARDIV'
p2939
I4352
sS'INSRCHNG'
p2940
I2776
sS'OBMEWAR'
p2941
I824
sS'INTLWHTS'
p2942
I1179
sS'MHHSPTRT'
p2943
I3764
sS'NOTAM'
p2944
I1805
sS'ARTSCHAT'
p2945
I2470
sS'ONLINE'
p2946
I2509
sS'VOLOTH'
p2947
I1916
sS'GRNTEST3'
p2948
I4705
sS'GRNTEST2'
p2949
I4704
sS'GIVENVIR'
p2950
I1951
sS'GRNGROUP'
p2951
I4730
sS'ASKWORK'
p2952
I2512
sS'LETINASN'
p2953
I2322
sS'AIDSSEX3'
p2954
I4982
sS'AIDSSEX2'
p2955
I4976
sS'AIDSRAC3'
p2956
I4984
sS'AIDSRAC2'
p2957
I4978
sS'AIDSADS'
p2958
I5003
sS'NATARTS'
p2959
I2140
sS'CIDERAC3'
p2960
I4965
sS'CIDERAC2'
p2961
I4960
sS'NUMCNTCT'
p2962
I2560
sS'VOLREC'
p2963
I1908
sS'PUBSCH'
p2964
I1130
sS'SPDUE'
p2965
I612
sS'HLTHINSR'
p2966
I2202
sS'WWWCLASS'
p2967
I2478
sS'KNWPOLAR'
p2968
I3421
sS'SATFIN'
p2969
I555
sS'FARMING'
p2970
I3542
sS'RACOBJCT'
p2971
I375
sS'PASUP'
p2972
I4321
sS'NUKEGEN'
p2973
I4713
sS'JOBSOC'
p2974
I548
sS'AIDSRACE'
p2975
I4972
sS'HRSFOUND'
p2976
I1943
sS'TVMELTNG'
p2977
I3425
sS'HOUSEWRK'
p2978
I4328
sS'SCIENTFU'
p2979
I3519
sS'TYPVET'
p2980
I3117
sS'SPHEDIND'
p2981
I1507
sS'MARPAKID'
p2982
I4351
sS'BIZBSTNK'
p2983
I3502
sS'JUDGEART'
p2984
I1405
sS'BRKDDO1'
p2985
I2087
sS'BRKDDO3'
p2986
I2089
sS'BRKDDO2'
p2987
I2088
sS'IMMUNITE'
p2988
I1632
sS'ADHDREAL'
p2989
I2975
sS'ROTAPPLE'
p2990
I1066
sS'BIZNUKE'
p2991
I3494
sS'ADHDCON'
p2992
I2976
sS'RPRTST15'
p2993
I4091
sS'PORNLAW'
p2994
I623
sS'MHNOTCH'
p2995
I3748
sS'FEARHOME'
p2996
I659
sS'TRADMOD'
p2997
I1674
sS'ADHDMED'
p2998
I2977
sS'VSTRAT'
p2999
I5546
sS'LETDIE1Y'
p3000
I5527
sS'INFLUASN'
p3001
I1223
sS'PACALL'
p3002
I4114
sS'MTPROF1'
p3003
I3281
sS'MTPROF3'
p3004
I3283
sS'MTPROF2'
p3005
I3282
sS'MTPROF5'
p3006
I3285
sS'MTPROF4'
p3007
I3284
sS'MTPROF6'
p3008
I3286
sS'CRIMTAP'
p3009
I3994
sS'AIDSREG3'
p3010
I4985
sS'AIDSREG2'
p3011
I4979
sS'HAPCOHAB'
p3012
I419
sS'HISPWORK'
p3013
I2346
sS'DWELCITY'
p3014
I5248
sS'SPATTEND'
p3015
I281
sS'HINUMOK'
p3016
I767
sS'TYPCHURH'
p3017
I3129
sS'ABHLTH'
p3018
I586
sS'OPPARED'
p3019
I4222
sS'USEFRDS'
p3020
I4212
sS'SPHEDOCC'
p3021
I1504
sS'OTHERWRK'
p3022
I4931
sS'MHDOPRAY'
p3023
I3698
sS'EVJOB'
p3024
I4571
sS'VOLYOUTH'
p3025
I1912
sS'MADAT1'
p3026
I1758
sS'OPDEVEL'
p3027
I2815
sS'MADAT2'
p3028
I1759
sS'MADAT5'
p3029
I1762
sS'MADAT4'
p3030
I1761
sS'MADAT7'
p3031
I1764
sS'LOTOFSAY'
p3032
I2795
sS'MADAT9'
p3033
I1766
sS'MADAT8'
p3034
I1765
sS'ELECTRON'
p3035
I3343
sS'CARDEALR'
p3036
I1816
sS'NEGJOB5'
p3037
I3922
sS'REWRDINT'
p3038
I4301
sS'YEARVAL'
p3039
I2868
sS'PROUDSPT'
p3040
I4783
sS'DAUVISIT'
p3041
I4124
sS'CONURBAN'
p3042
I4290
sS'FEWKNOKD'
p3043
I4433
sS'PRESTIGE'
p3044
I7
sS'KNOWKID4'
p3045
I2671
sS'KNOWKID1'
p3046
I2668
sS'LFEGOD'
p3047
I1365
sS'KNOWKID3'
p3048
I2670
sS'KNOWKID2'
p3049
I2669
sS'TAPWRK'
p3050
I5208
sS'BYEMPROB'
p3051
I2624
sS'WKAGEISM'
p3052
I2839
sS'DECSORGS'
p3053
I4823
sS'PHYSHARM'
p3054
I3009
sS'MEDIAREL'
p3055
I5274
sS'OPOUTCME'
p3056
I1362
sS'WORKLESS'
p3057
I1687
sS'IMPRVOWN'
p3058
I2018
sS'DIFFCARE'
p3059
I2764
sS'ACTVET'
p3060
I981
sS'WRKWAYUP'
p3061
I407
sS'RES16'
p3062
I70
sS'DECCHURH'
p3063
I1070
sS'SEXEDUC'
p3064
I609
sS'RACPROMO'
p3065
I1288
sS'EMOTCURE'
p3066
I2740
sS'LITAUTH'
p3067
I2499
sS'ORHEALER'
p3068
I2043
sS'CLSCLSEX'
p3069
I3966
sS'DIVWIFE'
p3070
I4370
sS'SCIAGRGW'
p3071
I3363
sS'TYPINFRM'
p3072
I3131
sS'FECHLD'
p3073
I686
sS'VALINTL'
p3074
I1989
sS'ADVCFRND'
p3075
I2525
sS'SCPOL'
p3076
I3373
sS'ATTSPRTS'
p3077
I1388
sS'MONENVIR'
p3078
I1921
sS'WRKIMP'
p3079
I4472
sS'NOGOOD'
p3080
I3045
sS'MHACCPTD'
p3081
I3743
sS'ORGANSB'
p3082
I1883
sS'JOBACCMP'
p3083
I549
sS'STAYORG1'
p3084
I1326
sS'STAYORG3'
p3085
I4566
sS'STAYORG2'
p3086
I1329
sS'ORGANSW'
p3087
I1884
sS'PARBORN'
p3088
I82
sS'HAPPY'
p3089
I417
sS'GIVUNSKL'
p3090
I4268
sS'DOWN1A'
p3091
I4198
sS'AUTONOJB'
p3092
I3888
sS'KID5UP'
p3093
I1129
sS'CONOFFCL'
p3094
I2918
sS'KD14JWOTH'
p3095
I3824
sS'VISSCI'
p3096
I3467
sS'PARTTEAM'
p3097
I2810
sS'SPSCHOOL'
p3098
I4059
sS'CLRGGEN2'
p3099
I3951
sS'CLRGGEN3'
p3100
I3952
sS'CLRGGEN1'
p3101
I3950
sS'INTLINCS'
p3102
I4821
sS'IF04WHO'
p3103
I158
sS'HISPSCHL'
p3104
I2367
sS'SECTECH'
p3105
I5160
sS'VIOLHSPS'
p3106
I1177
sS'OPS2005'
p3107
I3556
sS'GIVEOTH'
p3108
I1124
sS'NATCRIMY'
p3109
I187
sS'NATCRIMZ'
p3110
I198
sS'RELIGPUB'
p3111
I4604
sS'NATCRIME'
p3112
I169
sS'WLTHSO'
p3113
I1166
sS'MHFRIEND'
p3114
I3722
sS'GOVNGOS'
p3115
I4878
sS'PERHRW'
p3116
I2591
sS'MAIND80'
p3117
I46
sS'LAUNDRY1'
p3118
I4409
sS'PERHRH'
p3119
I2576
sS'PERHRO'
p3120
I2605
sS'FRINGE10'
p3121
I1345
sS'INTYRS'
p3122
I5522
sS'GOCHURCH'
p3123
I1072
sS'LAWYERG'
p3124
I1852
sS'LAWYERF'
p3125
I1851
sS'LAWYERE'
p3126
I1850
sS'LAWYERD'
p3127
I1849
sS'LAWYERC'
p3128
I1848
sS'LAWYERB'
p3129
I1847
sS'LAWYERA'
p3130
I1846
sS'WLTHUNDC'
p3131
I1654
sS'USESKILL'
p3132
I4560
sS'PADENKID'
p3133
I4625
sS'VOLWKOTH'
p3134
I4651
sS'PAYEDUC'
p3135
I4551
sS'TRANSOTH'
p3136
I1871
sS'COOP'
p3137
I678
sS'DOCCOSTS'
p3138
I2774
sS'USWORRY'
p3139
I1806
sS'DEPNDABL'
p3140
I3052
sS'GIVOWNER'
p3141
I4262
sS'ILLPHYS'
p3142
I2959
sS'SCIINTRO'
p3143
I3463
sS'EMGROUPS'
p3144
I2622
sS'SCIENTDA'
p3145
I3512
sS'HAPFEEL'
p3146
I1726
sS'SCIENTDN'
p3147
I3517
sS'SCIENTDO'
p3148
I3515
sS'MILWRKNW'
p3149
I815
sS'MHHLPPSY'
p3150
I3753
sS'EDUC'
p3151
I53
sS'LATIN'
p3152
I1379
sS'AMCIT'
p3153
I4766
sS'CHATHR'
p3154
I2403
sS'MHKDCARE'
p3155
I3721
sS'SOLSCHL'
p3156
I970
sS'EFF911G'
p3157
I3855
sS'EFF911F'
p3158
I3853
sS'EFF911E'
p3159
I3851
sS'EFF911D'
p3160
I3849
sS'EFF911C'
p3161
I3847
sS'EFF911B'
p3162
I3845
sS'EFF911A'
p3163
I3843
sS'EFF911N'
p3164
I3869
sS'EFF911M'
p3165
I3867
sS'EFF911L'
p3166
I3865
sS'EFF911K'
p3167
I3863
sS'EFF911J'
p3168
I3861
sS'EFF911I'
p3169
I3859
sS'EFF911H'
p3170
I3857
sS'WAIT7'
p3171
I2723
sS'DOINGFIN'
p3172
I2172
sS'NATAID'
p3173
I174
sS'VIOLBLKS'
p3174
I1175
sS'ENGSON'
p3175
I3528
sS'REPAIRS'
p3176
I4399
sS'RES161'
p3177
I4803
sS'RELGENDR'
p3178
I3909
sS'SUPDUTY4'
p3179
I1304
sS'SUPDUTY5'
p3180
I1305
sS'CONGHRM2'
p3181
I2112
sS'JUDGMENY'
p3182
I474
sS'JUDGMENZ'
p3183
I487
sS'CONGHRM1'
p3184
I2111
sS'OTHLANG1'
p3185
I2301
sS'OTHLANG2'
p3186
I2302
sS'JUDGMENT'
p3187
I461
sS'GIVFCTRY'
p3188
I4272
sS'SONNUM'
p3189
I4127
sS'AFAILURE'
p3190
I3042
sS'ETHCHNG'
p3191
I2339
sS'CHKTAXES'
p3192
I5180
sS'DEVIL'
p3193
I4609
sS'EVKID'
p3194
I3912
sS'MACALL'
p3195
I4110
sS'DRUNK'
p3196
I514
sS'HOSTHOME'
p3197
I1427
sS'CONTMEX'
p3198
I2293
sS'GRPUNION'
p3199
I4188
sS'GOODLIFE'
p3200
I4234
sS'IMPWORK'
p3201
I749
sS'OUTRAGED'
p3202
I1725
sS'TIMEFAM'
p3203
I4466
sS'MHNOTELL'
p3204
I3745
sS'OTHPAY'
p3205
I1332
sS'REPAIRS1'
p3206
I4410
sS'WORKUNDC'
p3207
I1656
sS'RELHHD10'
p3208
I5380
sS'RELHHD11'
p3209
I5381
sS'RELHHD12'
p3210
I5382
sS'RELHHD13'
p3211
I5383
sS'RELHHD14'
p3212
I5384
sS'HAPUNHAP'
p3213
I4584
sS'DRCTLINK'
p3214
I2405
sS'SOLFARM'
p3215
I974
sS'COUNTRY'
p3216
I1372
sS'MTFRAT4'
p3217
I3229
sS'RELEXT1'
p3218
I4660
sS'RELEXT2'
p3219
I4661
sS'VOLHUMAN'
p3220
I1905
sS'CNTCTGOV'
p3221
I4852
sS'FORM'
p3222
I680
sS'HAPIFWRK'
p3223
I4326
sS'DOC15A'
p3224
I2984
sS'SPHEADST'
p3225
I5081
sS'TAKETRCK'
p3226
I5186
sS'OBEYLAW'
p3227
I3980
sS'FORBDRAC'
p3228
I4946
sS'TOTRELIG'
p3229
I1964
sS'RELIGKID'
p3230
I4626
sS'GOVDOOK'
p3231
I4873
sS'AVOIDMH'
p3232
I3571
sS'POLCANGN'
p3233
I2559
sS'WOMENHRT'
p3234
I1701
sS'TOTINTL'
p3235
I1974
sS'CHLDEDUC'
p3236
I5065
sS'CONTEMP'
p3237
I357
sS'INFOBIZ'
p3238
I4748
sS'SPUNEMP'
p3239
I4062
sS'FAMILY16'
p3240
I73
sS'HLTHDOC'
p3241
I2537
sS'PRIAGNCY'
p3242
I4578
sS'FRTERROR'
p3243
I5215
sS'MOVETOWN'
p3244
I4760
sS'MNTLILL'
p3245
I2958
sS'LIVEHOME'
p3246
I4162
sS'KNWCAUSE'
p3247
I3832
sS'BLNUMOK'
p3248
I768
sS'PHYSILL'
p3249
I2014
sS'MHWEDREL'
p3250
I3724
sS'FORCEDOC'
p3251
I2954
sS'MTFARM2'
p3252
I3275
sS'MTFARM3'
p3253
I3276
sS'MTFARM1'
p3254
I3274
sS'OWNSTEEL'
p3255
I4072
sS'TIMERELX'
p3256
I4469
sS'OB911'
p3257
I820
sS'CHINA'
p3258
I5450
sS'MHDOGRP'
p3259
I3703
sS'MARKIDS'
p3260
I4347
sS'AMCULT'
p3261
I4794
sS'DK'
p3262
I4482
sS'RPROMOTN'
p3263
I4521
sS'SUISEX'
p3264
I4988
sS'MENTLDOC'
p3265
I2031
sS'YOUNGEN'
p3266
I503
sS'SOCACTS'
p3267
I2705
sS'PHYEFFRT'
p3268
I2854
sS'PARLEAVE'
p3269
I1694
sS'KNWMHOSP'
p3270
I2075
sS'WHOLOAND'
p3271
I1867
sS'PAYEDTRN'
p3272
I4309
sS'NANOWILL'
p3273
I3451
sS'GOLDFISH'
p3274
I3477
sS'DOONOWN'
p3275
I2515
sS'ACQNHGO'
p3276
I3607
sS'KNWJEW'
p3277
I2349
sS'HSPASN10'
p3278
I1629
sS'COMJEWS'
p3279
I2342
sS'MEMGREEK'
p3280
I955
sS'FSTSPPED'
p3281
I1496
sS'USTERROR'
p3282
I5214
sS'INSTRCTN'
p3283
I2274
sS'SCISOLVE'
p3284
I1028
sS'SPDOTTHN'
p3285
I118
sS'CRIMHOLD'
p3286
I3996
sS'JEWTEMP'
p3287
I360
sS'NATSCI'
p3288
I181
sS'WLTHJEWS'
p3289
I1162
sS'MATIME1'
p3290
I4163
sS'EXPERNC'
p3291
I4476
sS'RINCBLLS'
p3292
I2835
sS'PERRIGHT'
p3293
I4640
sS'INDUS10'
p3294
I16
sS'BIZPEOP'
p3295
I4741
sS'HELL'
p3296
I4611
sS'AIDSSCH'
p3297
I5002
sS'POLNUKE'
p3298
I3493
sS'UNBORED'
p3299
I4500
sS'GENETEST'
p3300
I5040
sS'MARHAPPY'
p3301
I4344
sS'GETJOB'
p3302
I4575
sS'CAPFIRM'
p3303
I255
sS'FEJOBAFF'
p3304
I1673
sS'LASTWKMO'
p3305
I2874
sS'PARFIN'
p3306
I5054
sS'JEW'
p3307
I275
sS'ISRAEL'
p3308
I5451
sS'COMHISP'
p3309
I2343
sS'ACQBLACK'
p3310
I3598
sS'SEECOWRK'
p3311
I2869
sS'WORKWEEK'
p3312
I4506
sS'TYPSPORT'
p3313
I3120
sS'PRESTG80'
p3314
I13
sS'PATIME'
p3315
I4113
sS'RELATE8'
p3316
I5329
sS'RELATE9'
p3317
I5335
sS'RELATE2'
p3318
I5293
sS'RELATE3'
p3319
I5299
sS'RELATE1'
p3320
I5287
sS'RELATE6'
p3321
I5317
sS'RELATE7'
p3322
I5323
sS'RELATE4'
p3323
I5305
sS'RELATE5'
p3324
I5311
sS'MARELIG'
p3325
I1041
sS'JOBRISE'
p3326
I540
sS'CHLDMORE'
p3327
I603
sS'DONEELSE'
p3328
I3870
sS'UNEMP'
p3329
I564
sS'COLMAJR1'
p3330
I1467
sS'COLMAJR2'
p3331
I1468
sS'CHLDMORL'
p3332
I5068
sS'ADVSRCH'
p3333
I2651
sS'POLINFNK'
p3334
I3498
sS'KNWPATNT'
p3335
I2082
sS'CONTROL'
p3336
I462
sS'MONHUMAN'
p3337
I1920
sS'GIVBLOOD'
p3338
I2883
sS'REINCAR'
p3339
I4662
sS'TRTCOHAB'
p3340
I1412
sS'ADVPAR'
p3341
I2518
sS'RINCOM91'
p3342
I101
sS'RACSUPS'
p3343
I706
sS'RINCOM98'
p3344
I103
sS'USEWWW'
p3345
I2400
sS'HELPPOOR'
p3346
I827
sS'NUMKNOWN'
p3347
I3572
sS'GIVEXEC'
p3348
I4263
sS'OWNGUN'
p3349
I662
sS'KDTMKID1'
p3350
I2664
sS'KDTMKID2'
p3351
I2665
sS'KDTMKID3'
p3352
I2666
sS'KDTMKID4'
p3353
I2667
sS'PREFSETS'
p3354
I2654
sS'TREAT7'
p3355
I2712
sS'TREAT4'
p3356
I2709
sS'TREAT5'
p3357
I2710
sS'TREAT2'
p3358
I2707
sS'TREAT3'
p3359
I2708
sS'TREAT1'
p3360
I2706
sS'MILPAY'
p3361
I765
sS'CARESIK1'
p3362
I4411
sS'TREAT8'
p3363
I2713
sS'TREAT9'
p3364
I2714
sS'MEDAGRGM'
p3365
I3393
sS'TYPSERV'
p3366
I3116
sS'COMSTEAL'
p3367
I5192
sS'FRNDRAC1'
p3368
I1111
sS'FRNDRAC2'
p3369
I1112
sS'FRNDRAC3'
p3370
I1113
sS'FRNDRAC4'
p3371
I1114
sS'FRNDRAC5'
p3372
I1115
sS'MHMEDS'
p3373
I3763
sS'VOTEFOR'
p3374
I2639
sS'SPPILL'
p3375
I5088
sS'RGHTSMIN'
p3376
I4862
sS'MHGVTJOB'
p3377
I3755
sS'BADCHAR'
p3378
I2926
sS'ONENATN'
p3379
I4764
sS'MARLEGIT'
p3380
I4349
sS'SECBUDGT'
p3381
I5177
sS'NEIFRD'
p3382
I4183
sS'HUNT'
p3383
I671
sS'BLKWRK'
p3384
I2360
sS'CHNGWORK'
p3385
I4565
sS'ANGRYFAM'
p3386
I1753
sS'ECON12'
p3387
I2445
sS'TAXCHEAT'
p3388
I4594
sS'EMWRKAWY'
p3389
I2617
sS'NUMORG'
p3390
I3560
sS'VISZOO'
p3391
I3466
sS'SATSELF'
p3392
I3041
sS'CHLDFRND'
p3393
I2940
sS'FEELHSPS'
p3394
I2750
sS'GIVECONG'
p3395
I1122
sS'RANK'
p3396
I553
sS'WHOELSE1'
p3397
I5504
sS'WHOELSE3'
p3398
I5506
sS'ENGTEACH'
p3399
I1625
sS'WHOELSE5'
p3400
I5508
sS'WHOELSE4'
p3401
I5507
sS'WHOELSE6'
p3402
I5509
sS'FUTENRGY'
p3403
I2703
sS'CRIMINFO'
p3404
I263
sS'VOTE80'
p3405
I138
sS'MASTER'
p3406
I308
sS'VOTE84'
p3407
I141
sS'HEFINFO'
p3408
I5385
sS'GENEHIRE'
p3409
I1242
sS'MHLUCK'
p3410
I3715
sS'PROUDHIS'
p3411
I4786
sS'TAXMID'
p3412
I4283
sS'RUNDRSTD'
p3413
I3033
sS'BOOKMARK'
p3414
I2408
sS'PROZKID1'
p3415
I2256
sS'HSCLASS2'
p3416
I1470
sS'HSCLASS1'
p3417
I1469
sS'CRACK30'
p3418
I5034
sS'WWWVOL'
p3419
I2508
sS'SEXFREQ'
p3420
I5018
sS'USREP'
p3421
I1019
sS'JOBHONOR'
p3422
I541
sS'WWWHR'
p3423
I2401
sS'CRELESSE'
p3424
I2699
sS'DATESCH'
p3425
I1477
sS'VISA'
p3426
I3899
sS'MHRELOTH'
p3427
I3775
sS'EDDONE1'
p3428
I2906
sS'CRIMTAIL'
p3429
I3993
sS'NUMUNION'
p3430
I3136
sS'YRYOUTH4'
p3431
I3182
sS'YRYOUTH5'
p3432
I3183
sS'YRYOUTH2'
p3433
I3180
sS'YRYOUTH3'
p3434
I3181
sS'YRYOUTH1'
p3435
I3179
sS'HUNTFISH'
p3436
I1396
sS'MEMGRP5'
p3437
I892
sS'MEMGRP4'
p3438
I891
sS'WEIGHING'
p3439
I3484
sS'MEMGRP2'
p3440
I889
sS'MEMGRP1'
p3441
I888
sS'MARNOMAR'
p3442
I4348
sS'NOUNEMP2'
p3443
I4928
sS'NOUNEMP3'
p3444
I4929
sS'FRINGEOK'
p3445
I2819
sS'NOUNEMP4'
p3446
I4930
sS'BELIKEUS'
p3447
I4774
sS'AMTV'
p3448
I4793
sS'OBEYSZ'
p3449
I491
sS'OBEYSY'
p3450
I478
sS'DIVIFKID'
p3451
I4368
sS'ENPRBFAM'
p3452
I3831
sS'CHILDS'
p3453
I50
sS'USAMIND'
p3454
I2332
sS'TAX'
p3455
I229
sS'NAFTA1'
p3456
I4814
sS'NAFTA2'
p3457
I4815
sS'NAFTA3'
p3458
I4834
sS'LASTSLF'
p3459
I4299
sS'SYMPCOUN'
p3460
I1146
sS'TYPGREEK'
p3461
I3124
sS'SPJOTH16'
p3462
I3792
sS'CLOSEBLK'
p3463
I409
sS'HELPHARM'
p3464
I3834
sS'LOCGRP'
p3465
I1008
sS'CHILD1'
p3466
I873
sS'CHILD2'
p3467
I874
sS'CHILD3'
p3468
I875
sS'CHILD4'
p3469
I876
sS'CHILD5'
p3470
I877
sS'EVDWELL'
p3471
I3925
sS'WATCHGOV'
p3472
I4838
sS'ACQCOHAB'
p3473
I3608
sS'CHLDSEX1'
p3474
I502
sS'HSORDER'
p3475
I4022
sS'DOSELF'
p3476
I2646
sS'POLINFSC'
p3477
I3377
sS'CUTAHEAD'
p3478
I2886
sS'AMRANK'
p3479
I1614
sS'NATEDUCZ'
p3480
I200
sS'SRCBELT'
p3481
I108
sS'NATEDUCY'
p3482
I189
sS'TEENS'
p3483
I87
sS'CATHSCH'
p3484
I1132
sS'WKSUP'
p3485
I562
sS'JEWSCLS'
p3486
I2366
sS'POSTLF8'
p3487
I291
sS'WKSUB'
p3488
I560
sS'AMPROUD1'
p3489
I4832
sS'PARTOPEN'
p3490
I5023
sS'PAYFAM'
p3491
I4550
sS'RELBSTSC'
p3492
I3379
sS'GUNNUM'
p3493
I646
sS'SIGNPET'
p3494
I2916
sS'PUTDOWN'
p3495
I3006
sS'CIVRIGHT'
p3496
I637
sS'DIVREL4'
p3497
I722
sS'DIVREL1'
p3498
I721
sS'PORNMORL'
p3499
I620
sS'SALFERGT'
p3500
I715
sS'JEW16AJ'
p3501
I330
sS'PROUDORG'
p3502
I1328
sS'DRUGTEST'
p3503
I1270
sS'PROZ9'
p3504
I2251
sS'WIRTAP'
p3505
I268
sS'FEEUSED'
p3506
I5514
sS'MAR14'
p3507
I5368
sS'MAR12'
p3508
I5356
sS'MAR13'
p3509
I5362
sS'MAR10'
p3510
I5344
sS'POLEFF8'
p3511
I4045
sS'HRSREC'
p3512
I1938
sS'SISVISIT'
p3513
I4116
sS'FEINC'
p3514
I4010
sS'MHHLPMHP'
p3515
I3754
sS'ADVSP'
p3516
I2516
sS'TRAINOPS'
p3517
I2828
sS'RACMAR'
p3518
I365
sS'LIBMIL'
p3519
I244
sS'GODMEANS'
p3520
I4616
sS'JEWSREL'
p3521
I2364
sS'DRINKYR'
p3522
I3103
sS'BROVISIT'
p3523
I4120
sS'HLPINFLU'
p3524
I4906
sS'REFXHOUR'
p3525
I1686
sS'NUMRBORN'
p3526
I3069
sS'HELPOTH'
p3527
I500
sS'OUTSIDER'
p3528
I2962
sS'DOTPEOP'
p3529
I111
sS'DRINK'
p3530
I513
sS'ENPRBUS'
p3531
I3830
sS'MEMCHURH'
p3532
I960
sS'SELLBABY'
p3533
I1887
sS'BORROW1A'
p3534
I4196
sS'LIVESO'
p3535
I1202
sS'CONLEGIS'
p3536
I442
sS'GUNS911'
p3537
I3670
sS'TERMREL'
p3538
I2264
sS'CONLEGIY'
p3539
I455
sS'REORG'
p3540
I1252
sS'IMPORTS'
p3541
I4788
sS'VOLACTYR'
p3542
I3969
sS'GODLVDIR'
p3543
I3094
sS'ACQWKBLK'
p3544
I3624
sS'TRAREL5'
p3545
I739
sS'TRAREL1'
p3546
I738
sS'USANGRY'
p3547
I1810
sS'ECOMMINH'
p3548
I2573
sS'YOURSELF'
p3549
I1722
sS'VOLACTY2'
p3550
I3970
sS'LETINEUR'
p3551
I2323
sS'ECOMMINW'
p3552
I2588
sS'GIVSEAT'
p3553
I2889
sS'HSBIO'
p3554
I3357
sS'MENTLILL'
p3555
I2013
sS'RACJOIN'
p3556
I405
sS'GRPPARTY'
p3557
I4856
sS'MUSICDIF'
p3558
I2488
sS'IHLPGRN'
p3559
I4697
sS'MORETRDE'
p3560
I3883
sS'CHLDHLP'
p3561
I2925
sS'SICK2A'
p3562
I4195
sS'FRDCULTR'
p3563
I1431
sS'ACQFMBLK'
p3564
I3648
sS'AGEWEDCR'
p3565
I1498
sS'LDCTAX'
p3566
I4305
sS'ARTSNEW'
p3567
I2471
sS'HSBASICS'
p3568
I4014
sS'RELOBJCT'
p3569
I4666
sS'WHERE11'
p3570
I5352
sS'WHERE10'
p3571
I5346
sS'WHERE13'
p3572
I5364
sS'WHERE12'
p3573
I5358
sS'WHERE14'
p3574
I5370
sS'ACQLINDA'
p3575
I3584
sS'IMPKIN'
p3576
I752
sS'BRONUM'
p3577
I4119
sS'HSJUDGE'
p3578
I4018
sS'GVTMELT'
p3579
I1618
sS'CONVICTD'
p3580
I669
sS'WRKTYPE'
p3581
I2778
sS'PROMOTNG'
p3582
I1282
sS'ARTINFO'
p3583
I2494
sS'SOCSECNU'
p3584
I2261
sS'SIBNUM'
p3585
I4164
sS'LEASTCOM'
p3586
I2378
sS'SUCCESS'
p3587
I458
sS'NUKEWAR'
p3588
I805
sS'HMEFIN12'
p3589
I2433
sS'BETRLANG'
p3590
I2319
sS'INFNETTV'
p3591
I5076
sS'RESDEFWK'
p3592
I816
sS'POLFUNDS'
p3593
I4853
sS'ABCON2'
p3594
I596
sS'RACPRES'
p3595
I383
sS'WKRSPNS'
p3596
I3028
sS'SIBLING2'
p3597
I869
sS'SIBLING3'
p3598
I870
sS'SIBLING1'
p3599
I868
sS'UNRGHTS'
p3600
I4879
sS'SIBLING4'
p3601
I871
sS'SIBLING5'
p3602
I872
sS'WWWBIZ'
p3603
I2505
sS'VOLART'
p3604
I1909
sS'FAMPER2'
p3605
I5130
sS'WRKCLASS'
p3606
I1718
sS'KIDRESP'
p3607
I3915
sS'MHTRTSLF'
p3608
I3777
sS'RACGIVE'
p3609
I404
sS'UNVOTE'
p3610
I1348
sS'TREAT6'
p3611
I2711
sS'BTHGRP5F'
p3612
I5498
sS'NATPARK'
p3613
I179
sS'CIDESEX3'
p3614
I4963
sS'CIDESEX2'
p3615
I4958
sS'HMO4'
p3616
I2213
sS'HMO5'
p3617
I2214
sS'GUNSALES'
p3618
I3667
sS'HMO7'
p3619
I2216
sS'HMO1'
p3620
I2210
sS'HMO2'
p3621
I2211
sS'HMO3'
p3622
I2212
sS'SAMEVALS'
p3623
I1327
sS'EMPLOYER'
p3624
I4547
sS'VETKIND'
p3625
I5241
sS'BOSSWRKS'
p3626
I4483
sS'CONTJEW'
p3627
I2291
sS'CHLDBEN'
p3628
I1697
sS'CONSIDER'
p3629
I467
sS'LTRSREF'
p3630
I1272
sS'BIBLEY'
p3631
I348
sS'CONSIDEY'
p3632
I480
sS'SEEKSCI'
p3633
I3321
sS'KD13JWOTH'
p3634
I3823
sS'SBWORK2'
p3635
I1602
sS'SBWORK1'
p3636
I1601
sS'SELFFRST'
p3637
I2899
sS'IMPTHNGS'
p3638
I1451
sS'SCRESRCH'
p3639
I3381
sS'PREACH'
p3640
I1144
sS'COOK30'
p3641
I2431
sS'SWITCHED'
p3642
I1032
sS'HHTYPE1'
p3643
I5389
sS'ENGPROB'
p3644
I3535
sS'KD5RELIG'
p3645
I3801
sS'RIMMDISC'
p3646
I1665
sS'COLAFFY'
p3647
I1640
sS'NURSE'
p3648
I774
sS'NEEDYFRD'
p3649
I1995
sS'TRAVEL30'
p3650
I2418
sS'MATIME'
p3651
I4109
sS'CONTVN'
p3652
I2294
sS'PARTFULL'
p3653
I512
sS'PAISCO88'
p3654
I5431
sS'ASNHOUSE'
p3655
I1231
sS'OPENMIND'
p3656
I1152
sS'RINTJOB'
p3657
I4523
sS'INTMED'
p3658
I3459
sS'MANNERS'
p3659
I457
sS'EMAILWRK'
p3660
I5206
sS'CONPRESS'
p3661
I437
sS'TRTMYRAC'
p3662
I1450
sS'RANK10'
p3663
I554
sS'BIZINFTX'
p3664
I3387
sS'INTLHSPS'
p3665
I1183
sS'MARMAKID'
p3666
I4350
sS'JOBEASY'
p3667
I4925
sS'TRANSAIR'
p3668
I778
sS'KIDJOB'
p3669
I4439
sS'GRANBORN'
p3670
I83
sS'FUTPROMO'
p3671
I1286
sS'NATDRUG'
p3672
I170
sS'EXPUNPOP'
p3673
I2690
sS'MAKEFRND'
p3674
I4670
sS'COMFORT'
p3675
I4671
sS'JOYLIFTS'
p3676
I3089
sS'CONINC'
p3677
I5467
sS'BIG5B2'
p3678
I4938
sS'BIG5B1'
p3679
I4933
sS'NATSOC'
p3680
I177
sS'JOBSALL'
p3681
I4075
sS'MANUAL'
p3682
I2510
sS'CURWKPAY'
p3683
I4917
sS'GENDER8'
p3684
I5330
sS'GENDER9'
p3685
I5336
sS'WHERE9'
p3686
I5340
sS'WHERE8'
p3687
I5334
sS'WHERE5'
p3688
I5316
sS'GENDER3'
p3689
I5300
sS'WHERE7'
p3690
I5328
sS'GENDER1'
p3691
I5288
sS'GENDER6'
p3692
I5318
sS'RELTIME'
p3693
I4140
sS'GENDER4'
p3694
I5306
sS'GENDER5'
p3695
I5312
sS'SCISTUDY'
p3696
I3333
sS'PARWHERE'
p3697
I5053
sS'ETHNIC'
p3698
I5218
sS'BUSTAX'
p3699
I4065
sS'RLEISURE'
p3700
I4522
sS'KD5JWOTH'
p3701
I3815
sS'TRUSTPEO'
p3702
I4216
sS'PAYCHNGE'
p3703
I3873
sS'MHDOMHP'
p3704
I3693
sS'GIVCHNG'
p3705
I2919
sS'GRPCHRTY'
p3706
I4191
sS'MHSEROTH'
p3707
I3771
sS'ADHDKNW'
p3708
I2974
sS'SOCPARS'
p3709
I508
sS'AMCITIZN'
p3710
I4772
sS'HUMOR30'
p3711
I2426
sS'CHLDCARE'
p3712
I4393
sS'INFRMGRP'
p3713
I3114
sS'HLTHCOVR'
p3714
I3929
sS'POLBSTTX'
p3715
I3391
sS'RELMARRY'
p3716
I4658
sS'HISPCHNG'
p3717
I2337
sS'ANSCITST'
p3718
I3470
sS'ACTUNION'
p3719
I983
sS'NOHMEWRK'
p3720
I1690
sS'EMAILYR'
p3721
I2636
sS'ABPOORW'
p3722
I4593
sS'FRNDOTH3'
p3723
I1103
sS'FRNDOTH2'
p3724
I1102
sS'TREATRES'
p3725
I3015
sS'FRNDOTH5'
p3726
I1105
sS'FRNDOTH4'
p3727
I1104
sS'OTHFAM4'
p3728
I881
sS'OTHFAM5'
p3729
I882
sS'OTHFAM1'
p3730
I878
sS'OTHFAM2'
p3731
I879
sS'OTHFAM3'
p3732
I880
sS'YEAR'
p3733
I0
sS'TYPEURL'
p3734
I2406
sS'PADOTPRE'
p3735
I127
sS'BUYBED'
p3736
I1874
sS'HOTCORE'
p3737
I3339
sS'LOBBYGRP'
p3738
I1003
sS'INTTECH'
p3739
I3458
sS'MUSICALS'
p3740
I1374
sS'AIDSINSR'
p3741
I5004
sS'SATURDAY'
p3742
I5272
sS'MAR8'
p3743
I5332
sS'SPKHOME2'
p3744
I4807
sS'ATEASE'
p3745
I1738
sS'SPKHOME1'
p3746
I4806
sS'POVZONE'
p3747
I1213
sS'WORDD'
p3748
I5253
sS'PUBECON'
p3749
I3979
sS'ACQWKGAY'
p3750
I3633
sS'PAOCC16'
p3751
I34
sS'FOLLOW'
p3752
I1074
sS'ANYDOC'
p3753
I2204
sS'HELPWRLD'
p3754
I4843
sS'AIMOFART'
p3755
I2145
sS'FENEWS'
p3756
I1716
sS'TOLDSMSX'
p3757
I3906
sS'ASNGOVT'
p3758
I1652
sS'WORDB'
p3759
I5251
sS'FERESPCT'
p3760
I1145
sS'IMPJOB'
p3761
I1455
sS'MODACT'
p3762
I2694
sS'RELIEDON'
p3763
I3013
sS'RIGHTPEO'
p3764
I4672
sS'SPOCC'
p3765
I25
sS'NATMASSZ'
p3766
I207
sS'OTHER4'
p3767
I911
sS'OTHER5'
p3768
I912
sS'OTHER1'
p3769
I908
sS'OTHER2'
p3770
I909
sS'OTHER3'
p3771
I910
sS'GENDER14'
p3772
I5366
sS'GENDER10'
p3773
I5342
sS'JOBPAPER'
p3774
I2628
sS'GENDER12'
p3775
I5354
sS'GENDER13'
p3776
I5360
sS'VISITORS'
p3777
I5393
sS'JOBRESP'
p3778
I545
sS'ACQCHILD'
p3779
I3580
sS'PRYNTFAM'
p3780
I2972
sS'TICKET'
p3781
I667
sS'EVUNEMP'
p3782
I1255
sS'ATTENDMA'
p3783
I4630
sS'ACQNHPRI'
p3784
I3630
sS'RUSSIA'
p3785
I5445
sS'FEELREL'
p3786
I4636
sS'SATDEMOC'
p3787
I2684
sS'SEEKSCIY'
p3788
I3510
sS'WKTENURE'
p3789
I4559
sS'SPSEI'
p3790
I5438
sS'MERGED'
p3791
I1251
sS'MAJOR2'
p3792
I62
sS'MAJOR1'
p3793
I61
sS'ACTUPSET'
p3794
I3010
sS'SPISC681'
p3795
I5429
sS'ONGOREL2'
p3796
I3954
sS'ONGOREL3'
p3797
I3955
sS'ONGOREL1'
p3798
I3953
sS'HHRACE'
p3799
I5386
sS'MHDOREL'
p3800
I3690
sS'LDCGRN'
p3801
I4745
sS'TAPPHONE'
p3802
I4901
sS'USEPSYC2'
p3803
I2193
sS'MANBOOK'
p3804
I2640
sS'TOTALNUM'
p3805
I4546
sS'BALNEG'
p3806
I3332
sS'TXECO'
p3807
I3382
sS'POLALTER'
p3808
I2466
sS'LIBRAC'
p3809
I238
sS'FAIRASNS'
p3810
I2287
sS'TRTMARK'
p3811
I1446
sS'EMMINH'
p3812
I2579
sS'BYEMAIL'
p3813
I2565
sS'INDUSTRY'
p3814
I11
sS'TVRELIG'
p3815
I1058
sS'LABORPOW'
p3816
I4067
sS'EQWLTH'
p3817
I227
sS'LAIDOFF'
p3818
I2836
sS'FRIDAY'
p3819
I5271
sS'FAMWHTS'
p3820
I2278
sS'CHANGED1'
p3821
I3079
sS'CHANGED2'
p3822
I3080
sS'CHANGED3'
p3823
I3081
sS'WRKHOME'
p3824
I2785
sS'CONGHLP1'
p3825
I2109
sS'SAMEJOB'
p3826
I1273
sS'STIFFPUN'
p3827
I4585
sS'RESPNUM'
p3828
I5387
sS'SPTMKID4'
p3829
I2663
sS'SPTMKID1'
p3830
I2660
sS'SPTMKID2'
p3831
I2661
sS'SPTMKID3'
p3832
I2662
sS'CONEDUC'
p3833
I434
sS'OFWORTH'
p3834
I3044
sS'ACQREPS'
p3835
I3583
sS'ACQFMUNE'
p3836
I3665
sS'PERSON30'
p3837
I2428
sS'JOBSKILL'
p3838
I4562
sS'INFFILMS'
p3839
I5074
sS'TRTCHILD'
p3840
I1411
sS'SPKHOMO'
p3841
I245
sS'YRINFRM5'
p3842
I3225
sS'YRINFRM4'
p3843
I3224
sS'YRINFRM3'
p3844
I3223
sS'YRINFRM2'
p3845
I3222
sS'YRINFRM1'
p3846
I3221
sS'IRRELART'
p3847
I2143
sS'WHTCHNG'
p3848
I2334
sS'PADOTSVP'
p3849
I126
sS'HLTHINFO'
p3850
I2533
sS'WKTOPSAT'
p3851
I2796
sS'ACQKEITH'
p3852
I3579
sS'OBEY'
p3853
I496
sS'MTSPORT1'
p3854
I3250
sS'MTSPORT3'
p3855
I3252
sS'MTSPORT2'
p3856
I3251
sS'MTSPORT5'
p3857
I3254
sS'MTSPORT4'
p3858
I3253
sS'MTSPORT6'
p3859
I3255
sS'YRCHURH1'
p3860
I3210
sS'RHOWFREE'
p3861
I2681
sS'SPENDEVE'
p3862
I2939
sS'MENTLHOS'
p3863
I2037
sS'RELMEET'
p3864
I4845
sS'MELTPOT1'
p3865
I4796
sS'TRUSTSCI'
p3866
I4644
sS'HIVTEST'
p3867
I5035
sS'HITBEATR'
p3868
I651
sS'BIG5D1'
p3869
I4935
sS'BIG5D2'
p3870
I4940
sS'EXCITED'
p3871
I1729
sS'HLTHPLAN'
p3872
I2761
sS'PEOPLE12'
p3873
I2437
sS'PREMARS1'
p3874
I4587
sS'COLAFF'
p3875
I1639
sS'TECHJOBS'
p3876
I4553
sS'SPDOTPEO'
p3877
I117
sS'JOBJUDGE'
p3878
I1318
sS'WOJOB'
p3879
I2174
sS'GMMED'
p3880
I3392
sS'COOP2'
p3881
I677
sS'ETHHIST'
p3882
I1647
sS'PRES84'
p3883
I142
sS'ACQCOPS'
p3884
I3636
sS'PRES80'
p3885
I139
sS'PRES88'
p3886
I145
sS'BLKINFLU'
p3887
I1024
sS'SPIND'
p3888
I28
sS'NEEDYREL'
p3889
I1994
sS'POLCAMP'
p3890
I2547
sS'ANRIGHTS'
p3891
I4684
sS'STOCKOPS'
p3892
I2860
sS'KDWRKSLF'
p3893
I1560
sS'MHHLPGP'
p3894
I3752
sS'OCCMOBIL'
p3895
I4293
sS'FINAN1'
p3896
I5117
sS'FINAN2'
p3897
I5118
sS'FINAN3'
p3898
I5119
sS'FINAN4'
p3899
I5120
sS'FINAN5'
p3900
I5121
sS'GIVWORK'
p3901
I1955
sS'RETCHNGE'
p3902
I2885
sS'MEMNAT'
p3903
I956
sS'SSFCHILD'
p3904
I4436
sS'BLKCHNG'
p3905
I2335
sS'RELTRUTH'
p3906
I4652
sS'RWRKINDP'
p3907
I4524
sS'TAXRICH'
p3908
I4282
sS'MHSEEDOC'
p3909
I3762
sS'MYKIDS'
p3910
I3932
sS'WEBMOB'
p3911
I2397
sS'DOCRELY'
p3912
I2760
sS'ACQBRNDA'
p3913
I3577
sS'PATRWHTS'
p3914
I1191
sS'INCHRW'
p3915
I2587
sS'FIGHTAIR'
p3916
I772
sS'MNTLREL'
p3917
I2978
sS'MODPAINT'
p3918
I1419
sS'ACTPOLIT'
p3919
I982
sS'LESSPRD'
p3920
I4820
sS'MAJWOTH'
p3921
I3793
sS'FEPOLY'
p3922
I575
sS'PAYELSE'
p3923
I2645
sS'RELGRADE'
p3924
I364
sS'PAINARMS'
p3925
I2850
sS'RACEDBTF'
p3926
I5229
sS'MALIVE'
p3927
I4107
sS'POLPAPR'
p3928
I2542
sS'FAMHSPS'
p3929
I2281
sS'PAFUND'
p3930
I1050
sS'VOTE88'
p3931
I144
sS'KDEDUC1'
p3932
I1545
sS'KDEDUC3'
p3933
I1547
sS'KDEDUC2'
p3934
I1546
sS'KDEDUC5'
p3935
I1549
sS'HAPBOYS'
p3936
I1672
sS'KDEDUC7'
p3937
I1551
sS'KDEDUC6'
p3938
I1550
sS'KDEDUC9'
p3939
I1553
sS'KDEDUC8'
p3940
I1552
sS'SATHOME'
p3941
I1844
sS'PROUDSCI'
p3942
I4782
sS'KD3JWOTH'
p3943
I3813
sS'HOMPOP'
p3944
I84
sS'MHNEIHBR'
p3945
I3719
sS'FIXMISTK'
p3946
I4886
sS'PROTTEMP'
p3947
I358
sS'KIDSAWAY'
p3948
I4830
sS'GIVHUMAN'
p3949
I1950
sS'CONTCHN'
p3950
I2290
sS'ASKOTHER'
p3951
I2513
sS'GVTAPART'
p3952
I1617
sS'DENOMSCH'
p3953
I1134
sS'FAMGEN'
p3954
I5390
sS'DOWELL'
p3955
I4475
sS'PEOPGRN'
p3956
I3838
sS'MNTLCARE'
p3957
I2207
sS'MNTLAS1'
p3958
I2057
sS'MNTLAS2'
p3959
I2058
sS'ADVFAM'
p3960
I2520
sS'OWNBIZ'
p3961
I3782
sS'RACDIF1'
p3962
I711
sS'USINTL'
p3963
I5441
sS'WORKHR'
p3964
I5243
sS'NEIETH12'
p3965
I2390
sS'NEIETH13'
p3966
I2391
sS'NEIETH10'
p3967
I2388
sS'NEIETH11'
p3968
I2389
sS'HONESTY'
p3969
I472
sS'NEIETH14'
p3970
I2392
sS'MTOTHER1'
p3971
I3293
sS'STUDIOUS'
p3972
I469
sS'MTOTHER2'
p3973
I3294
sS'MTOTHER5'
p3974
I3297
sS'MTOTHER4'
p3975
I3296
sS'STUDIOUY'
p3976
I482
sS'RELATSEX'
p3977
I5030
sS'STUDIOUZ'
p3978
I495
sS'MEDDOC'
p3979
I2030
sS'GRKIDNUM'
p3980
I4134
sS'KDALIVE8'
p3981
I1543
sS'KDALIVE9'
p3982
I1544
sS'KDALIVE1'
p3983
I1536
sS'KDALIVE2'
p3984
I1537
sS'KDALIVE3'
p3985
I1538
sS'KDALIVE4'
p3986
I1539
sS'KDALIVE5'
p3987
I1540
sS'KDALIVE6'
p3988
I1541
sS'KDALIVE7'
p3989
I1542
sS'DRAFTCO'
p3990
I793
sS'SECPRVCY'
p3991
I5173
sS'CRIMFIRM'
p3992
I264
sS'MATESEX'
p3993
I5011
sS'ECOAGREE'
p3994
I3385
sS'TRAINSCH'
p3995
I2156
sS'CLSETOWN'
p3996
I4755
sS'KIDHLTH'
p3997
I4032
sS'GIVINTL'
p3998
I1959
sS'MYSKILLS'
p3999
I2799
sS'WAIT10'
p4000
I2726
sS'WAIT11'
p4001
I2727
sS'COMKNOWS'
p4002
I2964
sS'OBEYTCH'
p4003
I1143
sS'SPIND80'
p4004
I31
sS'ROLECLRG'
p4005
I5064
sS'HAGGLE'
p4006
I1892
sS'INFMUSIC'
p4007
I5078
sS'SUIRAC2'
p4008
I4995
sS'SUIRAC3'
p4009
I5000
sS'BLKSCHS'
p4010
I1217
sS'SUIRACE'
p4011
I4990
sS'HOMEBAND'
p4012
I2673
sS'CUTGOVT'
p4013
I4050
sS'EVOLVED1'
p4014
I3554
sS'ILIKEJOB'
p4015
I4332
sS'RACCARE'
p4016
I401
sS'ACTLAW'
p4017
I4870
sS'MHDOFRGT'
p4018
I3701
sS'BOOKS16'
p4019
I4322
sS'FEDIRTY'
p4020
I782
sS'SPJEW'
p4021
I335
sS'MAWKBORN'
p4022
I77
sS'TRTWHITE'
p4023
I1464
sS'HITDRUNK'
p4024
I649
sS'SPHMEWRK'
p4025
I1678
sS'DIVNOKID'
p4026
I4367
sS'ACQLAWS'
p4027
I3575
sS'TEENSEX1'
p4028
I4395
sS'SOCID1'
p4029
I4816
sS'SOCID2'
p4030
I4817
sS'SOCID3'
p4031
I4818
sS'OPPOL'
p4032
I4233
sS'SUIREG2'
p4033
I4996
sS'SUIREG3'
p4034
I5001
sS'NUMSITES'
p4035
I4544
sS'WHOSOLD'
p4036
I1834
sS'MEMARRY'
p4037
I4343
sS'HOSDIS5'
p4038
I726
sS'THISJOB7'
p4039
I1281
sS'THISJOB6'
p4040
I1280
sS'THISJOB5'
p4041
I1279
sS'THISJOB4'
p4042
I1278
sS'THISJOB3'
p4043
I1277
sS'THISJOB2'
p4044
I1276
sS'THISJOB1'
p4045
I1275
sS'FRNDKING'
p4046
I320
sS'BUYIT12'
p4047
I2435
sS'SPDEATH'
p4048
I735
sS'CONCOURT'
p4049
I4600
sS'OLDIES'
p4050
I1386
sS'SPPAEDUC'
p4051
I1502
sS'COLRAC'
p4052
I237
sS'HOWANGRY'
p4053
I1781
sS'VERDICT'
p4054
I4001
sS'PROWAR'
p4055
I639
sS'MHOUTSDR'
p4056
I3729
sS'TEACHETH'
p4057
I1645
sS'ABDEFCTW'
p4058
I4592
sS'CHLDSCH'
p4059
I2941
sS'INDUSOTH'
p4060
I4504
sS'SELLAUTO'
p4061
I1869
sS'SONCALL'
p4062
I4130
sS'ABDEFCT1'
p4063
I4590
sS'TIMEPDWK'
p4064
I4464
sS'RPAYSAME'
p4065
I4513
sS'POPGRWTH'
p4066
I4735
sS'PEOPTRBL'
p4067
I2898
sS'MHDOLIFE'
p4068
I3699
sS'MAWRKGRW'
p4069
I79
sS'RESTLESS'
p4070
I1736
sS'RICHPOOR'
p4071
I1361
sS'RPLACE'
p4072
I5391
sS'LOVER'
p4073
I307
sS'HOPELESS'
p4074
I2134
sS'PAYCABNT'
p4075
I4253
sS'SPKATH'
p4076
I230
sS'WWWJAZZ'
p4077
I2481
sS'JOBPAY'
p4078
I539
sS'SBEVWORK'
p4079
I1603
sS'ROBJECT'
p4080
I3034
sS'RINCOM86'
p4081
I99
sS'WRKSTAT'
p4082
I2
sS'PRAY'
p4083
I298
sS'JOBLOSE'
p4084
I529
sS'ROBBRY'
p4085
I661
sS'SPJEWAJ'
p4086
I336
sS'MEDINFGM'
p4087
I3394
sS'GARDEN'
p4088
I1393
sS'NEWJOB12'
p4089
I2442
sS'CONCLERY'
p4090
I446
sS'MEMGRP3'
p4091
I890
sS'KING'
p4092
I314
sS'GIVPOL'
p4093
I1956
sS'EMWRKLOC'
p4094
I2616
sS'PRES68'
p4095
I130
sS'IMMIDEAS'
p4096
I4800
sS'NEWAGE'
p4097
I1381
sS'RESPONSY'
p4098
I479
sS'RESPONSZ'
p4099
I492
sS'GRTBOOKS'
p4100
I1417
sS'VALYOUTH'
p4101
I1987
sS'IMMAMECO'
p4102
I4798
sS'ASKFORGN'
p4103
I5167
sS'RESPONSI'
p4104
I466
sS'BORNSP'
p4105
I3897
sS'MARWHT'
p4106
I1210
sS'INTLCOWK'
p4107
I3891
sS'RHLPOTHS'
p4108
I4525
sS'OPAMBIT'
p4109
I4224
sS'WEEKSWRK'
p4110
I511
sS'FORSTEAL'
p4111
I5216
sS'DOC18'
p4112
I2234
sS'DOC19'
p4113
I2235
sS'OPTIMIST'
p4114
I3046
sS'DOC10'
p4115
I2226
sS'DOC11'
p4116
I2227
sS'DOC12'
p4117
I2228
sS'DOC13'
p4118
I2229
sS'DOC14'
p4119
I2230
sS'DOC15'
p4120
I2231
sS'DOC16'
p4121
I2232
sS'DOC17'
p4122
I2233
sS'ACTSERV'
p4123
I980
sS'ETHISSU1'
p4124
I1613
sS'SPKRAC'
p4125
I236
sS'ACQNOATT'
p4126
I3614
sS'FAMJEWS'
p4127
I2280
sS'WRTHLESS'
p4128
I2136
sS'MHHRDTLK'
p4129
I3736
sS'NOUNEMP1'
p4130
I4927
sS'FRDHELPS'
p4131
I4206
sS'SELFEMP1'
p4132
I4913
sS'SELFEMP2'
p4133
I4914
sS'ACQVAGO'
p4134
I3615
sS'ECONSYS'
p4135
I1896
sS'ATTNDGRP'
p4136
I1001
sS'REFRNDMS'
p4137
I4882
sS'EDDONE'
p4138
I2905
sS'POLFREL'
p4139
I2546
sS'AIDKIDS'
p4140
I4213
sS'CIDEAGE'
p4141
I4954
sS'GESTTALK'
p4142
I3570
sS'PROUDGRP'
p4143
I4787
sS'MANTAIL'
p4144
I3997
sS'ETHISSUE'
p4145
I1610
sS'ACQNHLIB'
p4146
I3616
sS'ACQNHLIN'
p4147
I3619
sS'CONTENTD'
p4148
I1734
sS'GOVERNOR'
p4149
I1018
sS'BESTFRD'
p4150
I4184
sS'MADAT15'
p4151
I1772
sS'BUSDECID'
p4152
I4724
sS'MADAT17'
p4153
I1774
sS'MADAT16'
p4154
I1773
sS'MADAT11'
p4155
I1768
sS'SCIENTRE'
p4156
I3523
sS'MADAT13'
p4157
I1770
sS'MADAT12'
p4158
I1769
sS'MTUNION1'
p4159
I3246
sS'MTUNION2'
p4160
I3247
sS'MTUNION3'
p4161
I3248
sS'MTUNION4'
p4162
I3249
sS'MADAT18'
p4163
I1775
sS'KNWASN'
p4164
I2351
sS'SPLIVE'
p4165
I4463
sS'WRKGOVT'
p4166
I9
sS'MOSTCOM'
p4167
I2377
sS'ASKDRUGS'
p4168
I5165
sS'GIVYOUTH'
p4169
I1957
sS'FUTRDOWN'
p4170
I1663
sS'LEFTLONE'
p4171
I2685
sS'LIFE'
p4172
I421
sS'EQTREAT'
p4173
I4863
sS'CARESICK'
p4174
I4400
sS'HSPHYS'
p4175
I3359
sS'FEMINIST'
p4176
I1715
sS'DANCE'
p4177
I1394
sS'RHHWORK'
p4178
I4415
sS'BUSPOW'
p4179
I4068
sS'INTEDUC'
p4180
I3455
sS'YRGREEK1'
p4181
I3191
sS'DANGROTH'
p4182
I2052
sS'YRGREEK3'
p4183
I3193
sS'YRGREEK2'
p4184
I3192
sS'INCTAX'
p4185
I4064
sS'NOATHOME'
p4186
I1688
sS'SOLSPORT'
p4187
I968
sS'ADVTCHR'
p4188
I2521
sS'OTHKIDS'
p4189
I3933
sS'LOANITEM'
p4190
I2893
sS'SPPREGNT'
p4191
I5079
sS'HONEST'
p4192
I459
sS'CHLDHOME'
p4193
I5070
sS'WHTREL'
p4194
I2354
sS'DEM10PST'
p4195
I4889
sS'VOEDCOL'
p4196
I67
sS'LOCLIVED'
p4197
I1004
sS'YRSKWN3'
p4198
I3315
sS'YRSKWN2'
p4199
I3314
sS'YRSKWN1'
p4200
I3313
sS'YRSKWN5'
p4201
I3317
sS'YRSKWN4'
p4202
I3316
sS'MOREDAYS'
p4203
I2782
sS'CONTROLY'
p4204
I475
sS'OPPSEGOV'
p4205
I4866
sS'CONTROLZ'
p4206
I488
sS'LIMITEDP'
p4207
I2697
sS'COMPWORK'
p4208
I2583
sS'FAMWKOFF'
p4209
I2787
sS'TAKEARMS'
p4210
I5182
sS'VIOLTV'
p4211
I2931
sS'RADIOACT'
p4212
I3340
sS'ATTEND'
p4213
I278
sS'POPULAR'
p4214
I497
sS'RELLAW'
p4215
I1854
sS'BELTUP'
p4216
I4035
sS'ADMIRBLK'
p4217
I1623
sS'NUMPROBS'
p4218
I2623
sS'CRIMREAD'
p4219
I3995
sS'ABORCT'
p4220
I591
sS'CONWLTH'
p4221
I4286
sS'SPWKGRWN'
p4222
I4406
sS'MOSTLOC'
p4223
I2601
sS'WWWROCK'
p4224
I2485
sS'PEOPLEGN'
p4225
I2552
sS'SPKLANG'
p4226
I2304
sS'ART30'
p4227
I2421
sS'RINCOME'
p4228
I92
sS'RELART'
p4229
I2149
sS'SPHLTHKD'
p4230
I5080
sS'KNWCLSEX'
p4231
I3965
sS'INCOME06'
p4232
I104
sS'ASTROLGY'
p4233
I3328
sS'COMPHOME'
p4234
I2566
sS'NATURWAR'
p4235
I4690
sS'MENTLOTH'
p4236
I2032
sS'WRKENJOY'
p4237
I4471
sS'MTFRAT3'
p4238
I3228
sS'MTFRAT2'
p4239
I3227
sS'MTFRAT1'
p4240
I3226
sS'SPHRS2'
p4241
I23
sS'FORCULT'
p4242
I4825
sS'XNORCSIZ'
p4243
I107
sS'POLVIEWX'
p4244
I164
sS'POLVIEWY'
p4245
I163
sS'NATHEAL'
p4246
I167
sS'LOCCARE'
p4247
I1009
sS'POLVIEWS'
p4248
I162
sS'SPWRKPAR'
p4249
I5083
sS'GOVTBIZ'
p4250
I4742
sS'MHSYMP'
p4251
I3780
sS'INFLUWHT'
p4252
I1220
sS'ASNCLS'
p4253
I2376
sS'KNOWPOLS'
p4254
I4908
sS'SPPART'
p4255
I3931
sS'NATURPAX'
p4256
I4687
sS'CHLDSEX'
p4257
I501
sS'PAATTEND'
p4258
I280
sS'SWAYVOTE'
p4259
I1011
sS'SAD'
p4260
I1727
sS'TYPSCHL'
p4261
I3122
sS'LOCYRS'
p4262
I2163
sS'RACISTS'
p4263
I4086
sS'IMPRVMED'
p4264
I2937
sS'SOLHOBBY'
p4265
I971
sS'SAMPLE'
p4266
I5533
sS'GUNSDRUG'
p4267
I3668
sS'FRNDDEAL'
p4268
I1880
sS'IMPRVTRT'
p4269
I2019
sS'HELPEMP'
p4270
I4898
sS'TOODIFME'
p4271
I4696
sS'IMMCRMUP'
p4272
I2324
sS'AIDOLD'
p4273
I4078
sS'WANTADS'
p4274
I4579
sS'SOLFRAT'
p4275
I963
sS'CLOSE25'
p4276
I844
sS'TYPPOLIT'
p4277
I3118
sS'ALIKE7'
p4278
I1490
sS'PROZ6'
p4279
I2248
sS'PROZ7'
p4280
I2249
sS'PROZ4'
p4281
I2246
sS'PROZ5'
p4282
I2247
sS'PROZ2'
p4283
I2244
sS'PROZ3'
p4284
I2245
sS'PROZ1'
p4285
I2243
sS'PROZ8'
p4286
I2250
sS'KD9RELIG'
p4287
I3805
sS'MARUNION'
p4288
I3910
sS'PUNFRND'
p4289
I5190
sS'TVNEWS'
p4290
I1403
sS'WHICHSCI'
p4291
I3327
sS'SATCAR'
p4292
I1828
sS'SMOKECIG'
p4293
I517
sS'ACQWKCON'
p4294
I3628
sS'SETWAGE'
p4295
I4048
sS'ACQWKCOH'
p4296
I3627
sS'MHDOOTC'
p4297
I3695
sS'MHDOOTH'
p4298
I3707
sS'COLSCI'
p4299
I3354
sS'PSYCKID3'
p4300
I2198
sS'PSYCKID2'
p4301
I2197
sS'PSYCKID1'
p4302
I2196
sS'BLKHOUSE'
p4303
I1230
sS'BTHGRP5A'
p4304
I5493
sS'BTHGRP5B'
p4305
I5494
sS'BTHGRP5C'
p4306
I5495
sS'BTHGRP5D'
p4307
I5496
sS'BTHGRP5E'
p4308
I5497
sS'TXBIZ'
p4309
I3383
sS'CARSTEN'
p4310
I4712
sS'WKHAROTH'
p4311
I2843
sS'REDEEMER'
p4312
I306
sS'ASNCHNG'
p4313
I2338
sS'ENGOFF1'
p4314
I2311
sS'COLHOMO'
p4315
I246
sS'INCDEF'
p4316
I5154
sS'MARNO'
p4317
I1208
sS'CHKOTHER'
p4318
I5203
sS'FAMRESP'
p4319
I4480
sS'EARNSHH'
p4320
I4435
sS'VIOLSELF'
p4321
I2961
sS'FEBRASS'
p4322
I783
sS'GENEEXPS'
p4323
I3051
sS'SUPFAM1'
p4324
I2910
sS'HELPCRIM'
p4325
I4897
sS'FEMILOP'
p4326
I798
sS'MHPRDCTV'
p4327
I3740
sS'RACHAF'
p4328
I379
sS'SOLPOLIT'
p4329
I966
sS'CONGHLP2'
p4330
I2110
sS'REVTCH15'
p4331
I3988
sS'DEPTPERF'
p4332
I2863
sS'IDOLS'
p4333
I3099
sS'IMMIMP'
p4334
I4827
sS'REWRDEFF'
p4335
I4300
sS'OBEYLAWS'
p4336
I4837
sS'RELIG1'
p4337
I933
sS'RELIG3'
p4338
I935
sS'RELIG2'
p4339
I934
sS'RELIG5'
p4340
I937
sS'RELIG4'
p4341
I936
sS'REGION'
p4342
I106
sS'REALRINC'
p4343
I5156
sS'ACQRACHL'
p4344
I3581
sS'FIRSTSEI'
p4345
I5435
sS'FIN30'
p4346
I2411
sS'ORGMONEY'
p4347
I1315
sS'LEADGRP'
p4348
I999
sS'JEWSWRK'
p4349
I2365
sS'WHYLOSE3'
p4350
I3881
sS'WHYLOSE2'
p4351
I3880
sS'WHYLOSE1'
p4352
I3879
sS'HARMSGRN'
p4353
I4683
sS'RINCOM77'
p4354
I95
sS'SEX1'
p4355
I848
sS'SEX2'
p4356
I849
sS'SEX3'
p4357
I850
sS'SEX4'
p4358
I851
sS'SEX5'
p4359
I852
sS'ENGRESP'
p4360
I3529
sS'SOCSIBS'
p4361
I509
sS'ASKFINAN'
p4362
I5163
sS'ADVCHLD'
p4363
I2517
sS'PAYFCTRY'
p4364
I4256
sS'INDUS80'
p4365
I14
sS'WORKDY'
p4366
I5242
sS'UPGRADE'
p4367
I803
sS'FIXERF'
p4368
I1862
sS'INTID'
p4369
I5513
sS'FIXERD'
p4370
I1860
sS'FIXERE'
p4371
I1861
sS'FIXERB'
p4372
I1858
sS'FIXERC'
p4373
I1859
sS'FIXERA'
p4374
I1857
sS'ACQFMNO'
p4375
I3663
sS'AUTOMATN'
p4376
I1294
sS'LOCKEDUP'
p4377
I670
sS'JOBFRNDS'
p4378
I2632
sS'WORKASNS'
p4379
I1170
sS'DEMRGHTS'
p4380
I4891
sS'POLRALLY'
p4381
I1013
sS'SPYFREND'
p4382
I5185
sS'FAREASNS'
p4383
I1188
sS'FIXER1'
p4384
I1863
sS'HRSENVIR'
p4385
I1936
sS'VOLPUB'
p4386
I1907
sS'SCRELIG'
p4387
I3372
sS'CARRIGHT'
p4388
I4653
sS'WKKIDSCS'
p4389
I4460
sS'WKKIDSCL'
p4390
I4458
sS'SPHRS1'
p4391
I22
sS'NATENRGY'
p4392
I182
sS'KD7RELIG'
p4393
I3803
sS'JEWAJ'
p4394
I276
sS'PHYSHLTH'
p4395
I2845
sS'WOCOMPTR'
p4396
I3887
sS'LONELY'
p4397
I1730
sS'COMPELSE'
p4398
I2600
sS'NEIGHBR3'
p4399
I895
sS'NEIGHBR2'
p4400
I894
sS'NEIGHBR1'
p4401
I893
sS'NEIGHBR5'
p4402
I897
sS'NEIGHBR4'
p4403
I896
sS'NAFTA2A'
p4404
I4833
sS'NATDEG'
p4405
I3901
sS'SAFEFRST'
p4406
I2803
sS'REFUGEES'
p4407
I4802
sS'MHDONONE'
p4408
I3708
sS'OWNDOING'
p4409
I3050
sS'OBRESPCT'
p4410
I1657
sS'ASKFRBIZ'
p4411
I5170
sS'DEMANDS'
p4412
I4215
sS'ABINFO'
p4413
I599
sS'SCINEWS2'
p4414
I3506
sS'SCINEWS3'
p4415
I3507
sS'SCINEWS1'
p4416
I3505
sS'USEMEDIA'
p4417
I4854
sS'WARRNTYH'
p4418
I1843
sS'ACQNHCON'
p4419
I3603
sS'WARRNTYC'
p4420
I1815
sS'ACQNHCOH'
p4421
I3593
sS'IMATTER'
p4422
I1323
sS'WKHARSEX'
p4423
I2842
sS'BRKDAS1'
p4424
I2066
sS'CLSENOAM'
p4425
I4758
sS'EMOTEOTH'
p4426
I1676
sS'EVNEGJOB'
p4427
I3921
sS'IMPRVEAT'
p4428
I2936
sS'HAPGIRLS'
p4429
I1671
sS'NATRACEZ'
p4430
I201
sS'NATRACEY'
p4431
I190
sS'UNJOBSEC'
p4432
I4915
sS'DECTREAT'
p4433
I2016
sS'FEINFO'
p4434
I577
sS'WLTHBLKS'
p4435
I1163
sS'FECLERGY'
p4436
I363
sS'IMPFAM'
p4437
I748
sS'ADVCOWRK'
p4438
I2524
sS'QUALITY'
p4439
I1320
sS'SLFRSPCT'
p4440
I3043
sS'BSTCALL'
p4441
I4186
sS'MHGVTHLT'
p4442
I3756
sS'BUSING10'
p4443
I382
sS'PAJOB'
p4444
I4294
sS'HMEMAKER'
p4445
I1717
sS'MAOCC80'
p4446
I43
sS'ORGFIN'
p4447
I1253
sS'LAWIMP'
p4448
I265
sS'USHOPEFL'
p4449
I1811
sS'JOINDEM'
p4450
I4850
sS'ROLETCHR'
p4451
I5063
sS'BLKGOVT'
p4452
I1650
sS'MTNAT2'
p4453
I3272
sS'MTNAT3'
p4454
I3273
sS'MTNAT1'
p4455
I3271
sS'TOTOTH'
p4456
I1976
sS'JOBHRW'
p4457
I2585
sS'ACQHOME'
p4458
I3592
sS'ARTVIEW'
p4459
I2493
sS'DENKID'
p4460
I4627
sS'SECOPIN'
p4461
I2777
sS'ADVISOR3'
p4462
I905
sS'OROTCMED'
p4463
I2045
sS'TVPBS'
p4464
I1404
sS'DOTSVP'
p4465
I114
sS'NATBORN'
p4466
I3029
sS'MAR11'
p4467
I5350
sS'MTINFRM5'
p4468
I3302
sS'MTINFRM4'
p4469
I3301
sS'MILVOLOK'
p4470
I771
sS'MTINFRM1'
p4471
I3298
sS'MTINFRM3'
p4472
I3300
sS'MTINFRM2'
p4473
I3299
sS'CHLDTIME'
p4474
I5073
sS'VALEDUC'
p4475
I1978
sS'WEBABLE'
p4476
I2638
sS'CHOSEDOC'
p4477
I2762
sS'LASTWKYR'
p4478
I2875
sS'ACQHISP'
p4479
I3600
sS'HITMARCH'
p4480
I648
sS'TOLDEXP1'
p4481
I3959
sS'TOLDEXP2'
p4482
I3960
sS'TOLDEXP3'
p4483
I3961
sS'JEWSCHNG'
p4484
I2336
sS'RACHISCH'
p4485
I388
sS'CHKONJOB'
p4486
I5202
sS'GENEGETS'
p4487
I1245
sS'OPEDUC'
p4488
I4223
sS'LEISURE'
p4489
I4488
sS'UNDOCWRK'
p4490
I1634
sS'ACQPRISN'
p4491
I3594
sS'MEETINGS'
p4492
I2564
sS'JOBCNTRL'
p4493
I1290
sS'ACCNTSCI'
p4494
I3412
sS'ECONSCI'
p4495
I3414
sS'CONDEMND'
p4496
I2821
sS'ORMNTLOT'
p4497
I2042
sS'COMMUTE'
p4498
I10
sS'NEEDYNEI'
p4499
I1993
sS'VIGVERSN'
p4500
I2003
sS'JOBINDEP'
p4501
I544
sS'MUSICNEW'
p4502
I2489
sS'ADTCH'
p4503
I2944
sS'FRDHONST'
p4504
I1437
sS'CLOSRGOD'
p4505
I3097
sS'FINDJOB'
p4506
I4508
sS'CLSEUSA'
p4507
I4757
sS'CHLDDTH'
p4508
I733
sS'GUNIMP'
p4509
I257
sS'WEEKEND'
p4510
I4420
sS'POSTLF1'
p4511
I284
sS'PERMORAL'
p4512
I1067
sS'GODRIGHT'
p4513
I4638
sS'TALKTEAM'
p4514
I3559
sS'USBLK'
p4515
I2328
sS'SPDEN'
p4516
I332
sS'SCHLHEAD'
p4517
I1020
sS'SPDEG'
p4518
I60
sS'WRKOTH'
p4519
I2158
sS'FUCITZN'
p4520
I5239
sS'BALPOS'
p4521
I3331
sS'LAWFIRM'
p4522
I267
sS'WWWMUSIC'
p4523
I2473
sS'SCISPEC'
p4524
I3325
sS'EXPLOIT'
p4525
I4904
sS'ABSPNO'
p4526
I681
sS'VISITART'
p4527
I1389
sS'PAPRES16'
p4528
I35
sS'VOLFOUND'
p4529
I1913
sS'INCLSTJB'
p4530
I3896
sS'USEVCR'
p4531
I1400
sS'MAWK16'
p4532
I78
sS'SCHL30'
p4533
I2412
sS'MARBLK'
p4534
I1205
sS'PARSOL'
p4535
I569
sS'MEBEAR'
p4536
I1713
sS'EMPSELF'
p4537
I4502
sS'RIFLES50'
p4538
I3671
sS'NEVERWK'
p4539
I1478
sS'TOTEDUC'
p4540
I1963
sS'MTCHURH6'
p4541
I3292
sS'CLRGMAR2'
p4542
I3945
sS'MTCHURH4'
p4543
I3290
sS'MTCHURH3'
p4544
I3289
sS'MTCHURH2'
p4545
I3288
sS'KIDMOST'
p4546
I4169
sS'TRTGOATT'
p4547
I1422
sS'JOBONWWW'
p4548
I2635
sS'GIVEDUC'
p4549
I1948
sS'HLTHWWW'
p4550
I2540
sS'SPDOTGED'
p4551
I119
sS'DRAFTEM'
p4552
I787
sS'HSWHT'
p4553
I2393
sS'HEALTH'
p4554
I420
sS'RACTRUST'
p4555
I392
sS'USWAR'
p4556
I5439
sS'CNTRLIFE'
p4557
I2693
sS'FRDINTEL'
p4558
I1439
sS'SPHOMEKD'
p4559
I5084
sS'ANGRYGVT'
p4560
I1754
sS'LAPSED'
p4561
I1055
sS'MONRELIG'
p4562
I1919
sS'CONRINC'
p4563
I5468
sS'OCC80'
p4564
I12
sS'HRSEDUC'
p4565
I1933
sS'LOCPROB'
p4566
I1007
sS'PUBAGNCY'
p4567
I4577
sS'AIDINDUS'
p4568
I4079
sS'GRNLAWS'
p4569
I4093
sS'KD11RELIG'
p4570
I3807
sS'RELCAND'
p4571
I4659
sS'FORLANG1'
p4572
I2315
sS'KIDSSOL'
p4573
I570
sS'PETITION'
p4574
I2459
sS'SCITEST5'
p4575
I4702
sS'SCITEST4'
p4576
I4701
sS'SCITEST1'
p4577
I4698
sS'SCITEST3'
p4578
I4700
sS'SCITEST2'
p4579
I4699
sS'GDJOBSEC'
p4580
I3014
sS'GIVOTH'
p4581
I1961
sS'CONTPR'
p4582
I2297
sS'PSYCPSYC'
p4583
I2201
sS'OCCYRS'
p4584
I2154
sS'H2OLIFE'
p4585
I3472
sS'IRRELOFF'
p4586
I2144
sS'MEMHOBBY'
p4587
I954
sS'BLKCOM'
p4588
I2358
sS'BLKCOL'
p4589
I1218
sS'RFLEXHRS'
p4590
I4527
sS'DIVBEST'
p4591
I4388
sS'GRNPRICE'
p4592
I4693
sS'OWNINC'
p4593
I3788
sS'MHDOHOSP'
p4594
I3697
sS'PROTSTRS'
p4595
I4084
sS'SCITESTY'
p4596
I4893
sS'EMOTQOL'
p4597
I2738
sS'AIDSWHO3'
p4598
I4980
sS'AIDSWHO2'
p4599
I4974
sS'VISNHIST'
p4600
I3465
sS'TVSHOWS'
p4601
I1402
sS'VOLWKPOL'
p4602
I4648
sS'FININC'
p4603
I2765
sS'FININD'
p4604
I2901
sS'OTHJEW'
p4605
I274
sS'PARTPOL'
p4606
I2688
sS'DEATH5'
p4607
I729
sS'SEX'
p4608
I68
sS'KDREL8'
p4609
I1534
sS'KDREL9'
p4610
I1535
sS'YRFARM2'
p4611
I3198
sS'YRFARM3'
p4612
I3199
sS'BALWKFAM'
p4613
I1683
sS'VISTHOLY'
p4614
I4667
sS'KDREL1'
p4615
I1527
sS'KDREL2'
p4616
I1528
sS'KDREL3'
p4617
I1529
sS'KDREL4'
p4618
I1530
sS'KDREL5'
p4619
I1531
sS'SEI'
p4620
I5434
sS'KDREL7'
p4621
I1533
sS'REALINC'
p4622
I5155
sS'SPDAYS'
p4623
I5244
sS'RACQUOTA'
p4624
I1219
sS'FAMVSWK1'
p4625
I4457
sS'HITCHILD'
p4626
I650
sS'KIDNUM'
p4627
I4168
sS'RACSPEAK'
p4628
I3990
sS'HUBBYWK1'
p4629
I4382
sS'MONDAY'
p4630
I5267
sS'ETHID'
p4631
I1608
sS'CONTACT'
p4632
I2460
sS'USASN'
p4633
I2331
sS'GRPCHURH'
p4634
I4189
sS'ACQATTND'
p4635
I3606
sS'SPWKNOKD'
p4636
I4403
sS'ADCOUMED'
p4637
I2949
sS'FEGIVE'
p4638
I582
sS'SPOCC10'
p4639
I32
sS'EXPCHNG3'
p4640
I3075
sS'EXPCHNG2'
p4641
I3074
sS'EXPCHNG1'
p4642
I3073
sS'GOD'
p4643
I1059
sS'DOCLIST'
p4644
I2203
sS'PAYCHILD'
p4645
I4312
sS'ACQGOATT'
p4646
I3611
sS'TRTRACHL'
p4647
I1456
sS'SPPOORKD'
p4648
I5082
sS'FTWORK'
p4649
I2907
sS'SCIFAITH'
p4650
I4678
sS'PRAYER'
p4651
I344
sS'GIVINFRM'
p4652
I1960
sS'INPEACE'
p4653
I2687
sS'PRES08'
p4654
I160
sS'PRES04'
p4655
I157
sS'PRES00'
p4656
I154
sS'IF76WHO'
p4657
I137
sS'AIDCOL'
p4658
I4082
sS'DWELLING'
p4659
I5246
sS'PAYDOC'
p4660
I4244
sS'CONTCUBA'
p4661
I2295
sS'RELIGINT'
p4662
I4646
sS'BTHGRP1E'
p4663
I5473
sS'BTHGRP1F'
p4664
I5474
sS'GOVUNEMP'
p4665
I4280
sS'BTHGRP1B'
p4666
I5470
sS'BTHGRP1C'
p4667
I5471
sS'INTERNET'
p4668
I4826
sS'TRTKEVIN'
p4669
I1436
sS'RELIGINF'
p4670
I4647
sS'COMPUSE'
p4671
I2395
sS'NOKIDS'
p4672
I4355
sS'OTHHOME'
p4673
I2318
sS'POLBSTNK'
p4674
I3501
sS'TOTFOUND'
p4675
I1973
sS'INFLUBLK'
p4676
I1222
sS'LANGCOM'
p4677
I2309
sS'MOODEASY'
p4678
I1380
sS'FUND'
p4679
I277
sS'SBEDUC'
p4680
I1599
sS'DOWNLOAD'
p4681
I2530
sS'AVOIDBUY'
p4682
I4849
sS'SEMIGUNS'
p4683
I3669
sS'SBWRKSLF'
p4684
I1606
sS'IMMCRIME'
p4685
I4797
sS'HELPJOB'
p4686
I4203
sS'ARTSHR'
p4687
I2469
sS'ELDCOST'
p4688
I4451
sS'EVLOSEJB'
p4689
I3919
sS'DOINGTRN'
p4690
I2171
sS'LIEDCWKR'
p4691
I3025
sS'KNWWHT'
p4692
I2347
sS'TRUSTY'
p4693
I425
sS'PAYRESP'
p4694
I4308
sS'GENETST1'
p4695
I5041
sS'NATCITYY'
p4696
I186
sS'NATCITYZ'
p4697
I197
sS'PORNOUT'
p4698
I622
sS'TRUST5'
p4699
I3827
sS'RELHH14'
p4700
I5407
sS'RELHH11'
p4701
I5404
sS'RELHH10'
p4702
I5403
sS'RELHH13'
p4703
I5406
sS'RELHH12'
p4704
I5405
sS'MAWORK'
p4705
I75
sS'MOVENOAM'
p4706
I4763
sS'DOWNCURE'
p4707
I2730
sS'ASTROSCI'
p4708
I3329
sS'SAFEHLTH'
p4709
I2805
sS'PARTIME'
p4710
I5056
sS'GUNFIRM'
p4711
I259
sS'LASERS'
p4712
I3342
sS'YOUINFLU'
p4713
I4905
sS'SPKCOM'
p4714
I239
sS'JUDGELUV'
p4715
I319
sS'FORBDMAR'
p4716
I4947
sS'CLOSE45'
p4717
I847
sS'ENGOFFCL'
p4718
I1627
sS'FAIRJEWS'
p4719
I2285
sS'KD4JWOTH'
p4720
I3814
sS'CONCHURH'
p4721
I4599
sS'GODSELLS'
p4722
I1120
sS'NOTICED'
p4723
I1330
sS'STRIKE'
p4724
I636
sS'TEENSEX'
p4725
I615
sS'ECOMMINO'
p4726
I2602
sS'ID'
p4727
I1
sS'MANPROF'
p4728
I1719
sS'LAUNDRY'
p4729
I4398
sS'LOOKAWAY'
p4730
I3016
sS'FRNDSEX'
p4731
I5012
sS'LIVEJEWS'
p4732
I1197
sS'AMBETTER'
p4733
I4775
sS'COMAMIND'
p4734
I2345
sS'BUSGRN'
p4735
I3837
sS'PARRGHT'
p4736
I5052
sS'SALLABOR'
p4737
I716
sS'FEFIGHT'
p4738
I781
sS'NERVOUS'
p4739
I2132
sS'LFECHNCE'
p4740
I1369
sS'ABPRO1'
p4741
I592
sS'ABPRO2'
p4742
I593
sS'ABPRO3'
p4743
I594
sS'DOCSAT'
p4744
I2773
sS'CHEMFREE'
p4745
I4727
sS'ACQWKMRK'
p4746
I3649
sS'TIMEHHWK'
p4747
I4465
sS'STRSSHME'
p4748
I4423
sS'GENEJOB'
p4749
I1241
sS'SECONDWK'
p4750
I2791
sS'WLTHPOV'
p4751
I2692
sS'ECOMHRO'
p4752
I2603
sS'ECOMHRH'
p4753
I2574
sS'LOANED'
p4754
I1872
sS'ECOMHRW'
p4755
I2589
sS'YRSERV8'
p4756
I3160
sS'YRSERV4'
p4757
I3156
sS'KNWNPROZ'
p4758
I2239
sS'YRSERV6'
p4759
I3158
sS'ESP'
p4760
I300
sS'YRSERV1'
p4761
I3153
sS'YRSERV2'
p4762
I3154
sS'MANREAD'
p4763
I3999
sS'EQUALIZE'
p4764
I4081
sS'SEEMHPUB'
p4765
I3569
sS'SOCFREND'
p4766
I506
sS'SPIRITS'
p4767
I302
sS'NUMEMPS'
p4768
I3019
sS'LEADSCI'
p4769
I3326
sS'DIPGED'
p4770
I63
sS'TEMPFAM'
p4771
I4722
sS'LESSNUKE'
p4772
I808
sS'BROCALL'
p4773
I4122
sS'RELCALL'
p4774
I4141
sS'MADAT'
p4775
I1737
sS'IMPRELAX'
p4776
I750
sS'OLD1'
p4777
I5289
sS'OLD3'
p4778
I5301
sS'OLD2'
p4779
I5295
sS'OLD5'
p4780
I5313
sS'OLD4'
p4781
I5307
sS'OLD7'
p4782
I5325
sS'OLD6'
p4783
I5319
sS'OLD9'
p4784
I5337
sS'OLD8'
p4785
I5331
sS'SAVESOUL'
p4786
I1061
sS'JOBAFF'
p4787
I1642
sS'ACQWKWHT'
p4788
I3657
sS'CONCLERG'
p4789
I433
sS'MAOTH'
p4790
I1043
sS'PROUDWRK'
p4791
I4567
sS'FAIRBLKS'
p4792
I2284
sS'GIVEGRP'
p4793
I1000
sS'INUITWAY'
p4794
I3445
sS'TRTLINDA'
p4795
I1442
sS'USSPY'
p4796
I5212
sS'RDK'
p4797
I4518
sS'HIINC'
p4798
I4486
sS'AIDHOUSE'
p4799
I4083
sS'COMORSCI'
p4800
I3440
sS'SCIFROM'
p4801
I3320
sS'ACTOTHER'
p4802
I994
sS'XMARSEX'
p4803
I616
sS'DRAFTFEM'
p4804
I788
sS'INTMIL'
p4805
I3462
sS'MHILLNSS'
p4806
I3717
sS'WKFAMBIZ'
p4807
I1893
sS'NOTCOUNT'
p4808
I3048
sS'PUBDEF'
p4809
I3978
sS'PASLF'
p4810
I4295
sS'FAREJEWS'
p4811
I1186
sS'ORTLKFM'
p4812
I2038
sS'HLTHTYPE'
p4813
I3930
sS'MYFAITH'
p4814
I1076
sS'FORMWT'
p4815
I5531
sS'ALLOWMAR'
p4816
I4950
sS'POPMUSIC'
p4817
I2147
sS'DRAMA'
p4818
I2148
sS'ACQWHITE'
p4819
I3602
sS'SEEFILM'
p4820
I5263
sS'MHCHRCTR'
p4821
I3709
sS'DEFWRKEV'
p4822
I812
sS'PARTYID'
p4823
I128
sS'KDPICKED'
p4824
I1554
sS'SAVEJOBS'
p4825
I4054
sS'UNSLFCON'
p4826
I4496
sS'ENGDA'
p4827
I3527
sS'WKSUPS'
p4828
I563
sS'UNPEOPLE'
p4829
I4494
sS'CONARMY'
p4830
I443
sS'MHDECSLF'
p4831
I3727
sS'LAWENFRC'
p4832
I3548
sS'PALIVE1'
p4833
I1474
sS'FININC1'
p4834
I2766
sS'FININC2'
p4835
I2767
sS'FININC3'
p4836
I2768
sS'FININC4'
p4837
I2769
sS'OBEYTHNK'
p4838
I4674
sS'EMAILHR'
p4839
I2399
sS'FRDENJOY'
p4840
I4208
sS'CLOSE34'
p4841
I845
sS'CONGETH'
p4842
I1644
sS'JBINTFAM'
p4843
I4921
sS'SHOP1'
p4844
I4412
sS'PAYSKILL'
p4845
I4248
sS'PRIVPRAY'
p4846
I2107
sS'CHLDSAFE'
p4847
I5067
sS'TYPOTHER'
p4848
I3130
sS'KDYRBRN6'
p4849
I1523
sS'OTHPLAN'
p4850
I3904
sS'HELPORG1'
p4851
I4563
sS'POLARYR6'
p4852
I3432
sS'POLARYR5'
p4853
I3431
sS'POLARYR4'
p4854
I3430
sS'POLARYR3'
p4855
I3429
sS'STRSSWRK'
p4856
I4425
sS'SELLSEX'
p4857
I1888
sS'AMICABLZ'
p4858
I490
sS'AMICABLY'
p4859
I477
sS'NUMSPORT'
p4860
I3137
sS'GUNLAW'
p4861
I256
sS'SPWRKSCH'
p4862
I4405
sS'POLINT'
p4863
I4088
sS'HLTHTV'
p4864
I2539
sS'AMICABLE'
p4865
I464
sS'BTHGRP3B'
p4866
I5482
sS'BTHGRP3C'
p4867
I5483
sS'BTHGRP3A'
p4868
I5481
sS'BTHGRP3F'
p4869
I5486
sS'BTHGRP3D'
p4870
I5484
sS'BTHGRP3E'
p4871
I5485
sS'DOWNFAM'
p4872
I2729
sS'OWNMASS'
p4873
I4071
sS'TYPEVISA'
p4874
I3900
sS'SPWRKGVT'
p4875
I4943
sS'ERAFIRM'
p4876
I699
sS'GIVBUS'
p4877
I4267
sS'MHDODOC'
p4878
I3691
sS'PAYWWW'
p4879
I2570
sS'ANOMIA8'
p4880
I527
sS'ANOMIA9'
p4881
I528
sS'ANOMIA6'
p4882
I525
sS'ANOMIA7'
p4883
I526
sS'ANOMIA4'
p4884
I523
sS'ANOMIA5'
p4885
I524
sS'ANOMIA2'
p4886
I521
sS'ANOMIA3'
p4887
I522
sS'ANOMIA1'
p4888
I520
sS'VIGLAB06'
p4889
I3565
sS'REGDOCYR'
p4890
I2757
sS'WORKBLKS'
p4891
I1169
sS'MARITAL'
p4892
I17
sS'EHARASWK'
p4893
I3023
sS'BUYPOL'
p4894
I4841
sS'MAWORK14'
p4895
I4372
sS'FAMWKLST'
p4896
I4447
sS'DRAFT'
p4897
I785
sS'FRIEND5'
p4898
I902
sS'FRIEND4'
p4899
I901
sS'FRIEND3'
p4900
I900
sS'FRIEND2'
p4901
I899
sS'FRIEND1'
p4902
I898
sS'DOC8'
p4903
I2224
sS'DOC9'
p4904
I2225
sS'FRDCREAT'
p4905
I1429
sS'DOC2'
p4906
I2218
sS'DOC3'
p4907
I2219
sS'DOC1'
p4908
I2217
sS'DOC6'
p4909
I2222
sS'DOC7'
p4910
I2223
sS'DOC4'
p4911
I2220
sS'DOC5'
p4912
I2221
sS'NEWOWNED'
p4913
I1832
sS'PISTOL'
p4914
I663
sS'CHORES1'
p4915
I4149
sS'CHORES2'
p4916
I4150
sS'PAYOTHER'
p4917
I2514
sS'IMMNEW'
p4918
I2325
sS'MAKEJOBS'
p4919
I4051
sS'ENGREL'
p4920
I3538
sS'ACTLIT'
p4921
I991
sS'AWAY7'
p4922
I5327
sS'CHNANG8'
p4923
I1791
sS'CHNANG9'
p4924
I1792
sS'CHNANG6'
p4925
I1789
sS'CHNANG7'
p4926
I1790
sS'CHNANG4'
p4927
I1787
sS'CHNANG5'
p4928
I1788
sS'CHNANG2'
p4929
I1785
sS'CHNANG3'
p4930
I1786
sS'FIGHTSEA'
p4931
I780
sS'WRKSLF'
p4932
I8
sS'GWSCI'
p4933
I3360
sS'FRIENDS'
p4934
I1116
sS'CLOSEWHT'
p4935
I410
sS'NATDRUGY'
p4936
I188
sS'NATDRUGZ'
p4937
I199
sS'FINDNWJB'
p4938
I3882
sS'POLEFY13'
p4939
I3973
sS'HELPHWRK'
p4940
I4200
sS'POLEFY16'
p4941
I3975
sS'POLEFY17'
p4942
I3976
sS'LASTJOB'
p4943
I4298
sS'POLEFY15'
p4944
I3974
sS'PSYCDRCT'
p4945
I2199
sS'ECOBSTTX'
p4946
I3389
sS'NIECENEP'
p4947
I4180
sS'TWOCLASS'
p4948
I1151
sS'DRINK6UP'
p4949
I3105
sS'READWORD'
p4950
I1063
sS'DRINKMIN'
p4951
I3112
sS'SKILTEST'
p4952
I1269
sS'TOPPROB1'
p4953
I3825
sS'MHIMPOWN'
p4954
I3725
sS'TOPPROB2'
p4955
I3826
sS'GOVJOBS'
p4956
I4278
sS'ORGSIZE'
p4957
I2161
sS'NEARGOD'
p4958
I304
sS'CRIMDOWN'
p4959
I3065
sS'GENESELF'
p4960
I5045
sS'PORNIMP'
p4961
I626
sS'CHURHACT'
p4962
I1057
sS'FAREHSPS'
p4963
I1189
sS'OTHDUTY5'
p4964
I1312
sS'OTHDUTY4'
p4965
I1311
sS'OTHDUTY7'
p4966
I1314
sS'OTHDUTY6'
p4967
I1313
sS'OTHDUTY1'
p4968
I1308
sS'FAMVSWRK'
p4969
I4429
sS'OTHDUTY3'
p4970
I1310
sS'JOBFIND'
p4971
I530
sS'MHNERVS'
p4972
I3739
sS'WORRIED'
p4973
I1733
sS'SOLPROF'
p4974
I976
sS'AIDSDEAD'
p4975
I4969
sS'HOMEKID'
p4976
I4327
sS'FAITH4'
p4977
I1085
sS'RACOPNOW'
p4978
I396
sS'IMPCHURH'
p4979
I753
sS'FE12'
p4980
I2454
sS'THURSDAY'
p4981
I5270
sS'PHONE'
p4982
I676
sS'RACINTEG'
p4983
I374
sS'LOCALART'
p4984
I2153
sS'GRPOTHER'
p4985
I4860
sS'AGEEMP'
p4986
I4478
sS'INVEST12'
p4987
I2436
sS'MHFAMSHM'
p4988
I3761
sS'FOURKIDS'
p4989
I4359
sS'OBVOTE'
p4990
I817
sS'VALREC'
p4991
I1983
sS'NUMMEN'
p4992
I5022
sS'OPFAMILY'
p4993
I4007
sS'IF08WHO'
p4994
I161
sS'TVOIL'
p4995
I3426
sS'HHWKFAIR'
p4996
I4417
sS'SBYRBRN8'
p4997
I1578
sS'SPOUSE'
p4998
I312
sS'WORLD7'
p4999
I355
sS'DEFSPDFG'
p5000
I743
sS'SBYRBRN4'
p5001
I1574
sS'MAWKBABY'
p5002
I76
sS'DOWN2'
p5003
I4158
sS'TIMEOFF'
p5004
I4920
sS'WRKHRH'
p5005
I2578
sS'RIMPSKLS'
p5006
I4918
sS'SWITAGE2'
p5007
I1038
sS'SWITAGE1'
p5008
I1037
sS'NUMKIDS'
p5009
I4354
sS'RACMAR10'
p5010
I366
sS'MADENKID'
p5011
I4623
sS'SALTH2O'
p5012
I3478
sS'FECARE'
p5013
I579
sS'SUPOTHRS'
p5014
I1298
sS'DIVHUBBY'
p5015
I4371
sS'INDUSFAM'
p5016
I4716
sS'TOOFEWWK'
p5017
I2813
sS'ASKFRTRV'
p5018
I5171
sS'MHGOD'
p5019
I3714
sS'OWNHH'
p5020
I2903
sS'SISCALL'
p5021
I4118
sS'GENEDEF3'
p5022
I5049
sS'BLKJOBS'
p5023
I1227
sS'KNWGW'
p5024
I3420
sS'ENGGOOD'
p5025
I3533
sS'ROLE'
p5026
I463
sS'NEWJOBS'
p5027
I3884
sS'AIDSMAR'
p5028
I5006
sS'INCOME82'
p5029
I96
sS'ADPSYMED'
p5030
I2951
sS'WKPRAISE'
p5031
I2832
sS'INCOME86'
p5032
I98
sS'MONPOL'
p5033
I1926
sS'MUSICBUY'
p5034
I2477
sS'NUMHOBBY'
p5035
I3140
sS'ACQNHMRK'
p5036
I3623
sS'MEETF2F2'
p5037
I3890
sS'MEETF2F1'
p5038
I3889
sS'DWELNGH'
p5039
I5247
sS'WOTRIAL'
p5040
I4900
sS'GIVCLERK'
p5041
I4261
sS'NANOTECH'
p5042
I3448
sS'GRPARNUM'
p5043
I4133
sS'DATABANK'
p5044
I4002
sS'WORKNOW'
p5045
I4556
sS'LIBCOM'
p5046
I241
sS'GOVLESS'
p5047
I4279
sS'LIETEST'
p5048
I5198
sS'LESSFARE'
p5049
I1212
sS'EVCRACK'
p5050
I5033
sS'EVDRINK'
p5051
I3102
sS'JOBMINW'
p5052
I2584
sS'ACQNTSEX'
p5053
I5013
sS'WKNDACT'
p5054
I4453
sS'NATRACE'
p5055
I172
sS'GIVHMLSS'
p5056
I2884
sS'CHKTRAVL'
p5057
I5205
sS'LIBHOMO'
p5058
I247
sS'ISCO681'
p5059
I5426
sS'CORRUPT1'
p5060
I4909
sS'CORRUPT2'
p5061
I4910
sS'HRSHLTH'
p5062
I1932
sS'IMPGOD'
p5063
I1449
sS'DECMONEY'
p5064
I2017
sS'SCIENTOD'
p5065
I3521
sS'CIGWEEK'
p5066
I518
sS'HELPNOT'
p5067
I828
sS'MILWRKEV'
p5068
I814
sS'PRETEEN'
p5069
I86
sS'FORCEHOS'
p5070
I2956
sS'HLTHMAG2'
p5071
I2536
sS'HLTHMAG1'
p5072
I2535
sS'PAISCO68'
p5073
I5424
sS'TOTHLTH'
p5074
I1962
sS'ACTFRAT'
p5075
I979
sS'WEEKLY'
p5076
I2180
sS'MTSERV8'
p5077
I3237
sS'TIMEFRND'
p5078
I4467
sS'MTSERV2'
p5079
I3231
sS'MTSERV3'
p5080
I3232
sS'MTSERV1'
p5081
I3230
sS'MTSERV6'
p5082
I3235
sS'MTSERV7'
p5083
I3236
sS'MTSERV4'
p5084
I3233
sS'MTSERV5'
p5085
I3234
sS'ADCOU'
p5086
I2948
sS'CORRUPTN'
p5087
I4887
sS'FORLAND'
p5088
I4792
sS'FORLANG'
p5089
I4790
sS'FORAFF12'
p5090
I2448
sS'BUYVALUE'
p5091
I3555
sS'ADFAMMED'
p5092
I2943
sS'OTH16'
p5093
I327
sS'LIKEOTH'
p5094
I1803
sS'BIZBSTGW'
p5095
I3369
sS'SCIIMP7'
p5096
I3407
sS'SCIIMP4'
p5097
I3404
sS'SCIIMP5'
p5098
I3405
sS'SCIGRN'
p5099
I4681
sS'PACALL1'
p5100
I4173
sS'SCIIMP1'
p5101
I3401
sS'HISPCLS'
p5102
I2371
sS'SCIIMP8'
p5103
I3408
sS'NEWSPRNT'
p5104
I3677
sS'CMPVIRUS'
p5105
I2532
sS'BIZBSTGM'
p5106
I3399
sS'COMEMAIL'
p5107
I5196
sS'WORDSUM'
p5108
I5260
sS'WRKSCHED'
p5109
I2781
sS'DRAFTMAR'
p5110
I790
sS'FEBEAR'
p5111
I700
sS'EMSENTP'
p5112
I2613
sS'CLEAN1'
p5113
I4413
sS'KIDFIN'
p5114
I4364
sS'ATTRELIG'
p5115
I5264
sS'CUTDEBT'
p5116
I4106
sS'DOTGED'
p5117
I113
sS'MAISC681'
p5118
I5428
sS'MEMNUM'
p5119
I962
sS'ACQKEVIN'
p5120
I3573
sS'BEPLESNT'
p5121
I1750
sS'EASYGET'
p5122
I5518
sS'MAISCO88'
p5123
I5432
sS'GIVPUB'
p5124
I1952
sS'CONFINAN'
p5125
I431
sS'CONFINAY'
p5126
I444
sS'CLEANZ'
p5127
I486
sS'CLEANY'
p5128
I473
sS'CHARISMA'
p5129
I5286
sS'ERAMEANS'
p5130
I691
sS'SCIWORSE'
p5131
I4680
sS'ALIKE5'
p5132
I1488
sS'FRDKNOWS'
p5133
I4207
sS'LOCALGVT'
p5134
I4220
sS'MOBILE16'
p5135
I72
sS'MONINTL'
p5136
I1929
sS'IMMRGHTS'
p5137
I4831
sS'ACQUNEMP'
p5138
I3590
sS'MILOKME'
p5139
I801
sS'ACQMYRAC'
p5140
I3587
sS'SEXSEX'
p5141
I5017
sS'RACIMP'
p5142
I398
sS'DENYRAIS'
p5143
I3026
sS'EMMINO'
p5144
I2608
sS'TOTHUMAN'
p5145
I1965
sS'EMMINW'
p5146
I2592
sS'SWITHLTH'
p5147
I2205
sS'MOSTLUCK'
p5148
I1744
sS'PAIND10'
p5149
I42
sS'CSHUTYP06'
p5150
I5540
sS'PAIND16'
p5151
I37
sS'CSHUTYP08'
p5152
I5541
sS'FEGAINS'
p5153
I1027
sS'AFTERLIF'
p5154
I4608
sS'RELSPRT2'
p5155
I3091
sS'RELSPRT1'
p5156
I3090
sS'USHISP'
p5157
I2330
sS'PORNRAPE'
p5158
I621
sS'TYPEORG'
p5159
I2157
sS'HLPEQUIP'
p5160
I2816
sS'GIVROCC'
p5161
I4274
sS'ABANY'
p5162
I590
sS'COHABFST'
p5163
I4387
sS'PAYFARM'
p5164
I4249
sS'VIGWORK'
p5165
I2023
sS'WAIT4'
p5166
I2720
sS'WAIT5'
p5167
I2721
sS'WAIT6'
p5168
I2722
sS'CONTJPN'
p5169
I2298
sS'WAIT1'
p5170
I2717
sS'WAIT2'
p5171
I2718
sS'WAIT3'
p5172
I2719
sS'SUPDUTY1'
p5173
I1301
sS'SUPDUTY2'
p5174
I1302
sS'SUPDUTY3'
p5175
I1303
sS'WAIT8'
p5176
I2724
sS'WAIT9'
p5177
I2725
sS'SUPDUTY6'
p5178
I1306
sS'SUPDUTY7'
p5179
I1307
sS'OPENREL3'
p5180
I3940
sS'OPENREL2'
p5181
I3939
sS'OPENREL1'
p5182
I3938
sS'WHERE6'
p5183
I5322
sS'POLLTRUE'
p5184
I760
sS'RELATE14'
p5185
I5365
sS'SUNSCH16'
p5186
I1052
sS'FORMLHRS'
p5187
I2170
sS'RELATE10'
p5188
I5341
sS'RELATE11'
p5189
I5347
sS'RELATE12'
p5190
I5353
sS'RELATE13'
p5191
I5359
sS'FRIWORK'
p5192
I4143
sS'TRUSTCRT'
p5193
I2270
sS'CHURHMEM'
p5194
I1056
sS'OBKNOW'
p5195
I822
sS'CHOICE'
p5196
I2689
sS'LOCATE12'
p5197
I2440
sS'LAW4'
p5198
I5138
sS'LAW5'
p5199
I5139
sS'LAW6'
p5200
I5140
sS'LAW7'
p5201
I5141
sS'LAW1'
p5202
I5135
sS'LAW2'
p5203
I5136
sS'LAW3'
p5204
I5137
sS'RDISCAFF'
p5205
I1664
sS'BIBLE'
p5206
I347
sS'WHTCOM'
p5207
I2353
sS'IMPGRN'
p5208
I4736
sS'HSJOBTR'
p5209
I4019
sS'BIZINFGM'
p5210
I3396
sS'FREEPRSS'
p5211
I2691
sS'PAINRELY'
p5212
I2736
sS'BIZINFGW'
p5213
I3366
sS'RFAMRESP'
p5214
I4516
sS'JOBFIND1'
p5215
I2837
sS'BMITZVAH'
p5216
I3795
sS'SUIKNEW'
p5217
I4986
sS'TOLDSXOR'
p5218
I3908
sS'MADEG'
p5219
I59
sS'MADEN'
p5220
I1042
sS'PERFORM'
p5221
I1397
sS'COMSYS'
p5222
I5194
sS'IF96WHO'
p5223
I152
sS'TRTHOME'
p5224
I1426
sS'TERMECON'
p5225
I2263
sS'INFOTV'
p5226
I4752
sS'AIDSFARE'
p5227
I5009
sS'MAJORCOL'
p5228
I3353
sS'WTSSALL'
p5229
I5545
sS'ISCO88'
p5230
I5430
sS'HELPSEC'
p5231
I4896
sS'RELIGCON'
p5232
I4645
sS'NUKEELEC'
p5233
I3503
sS'NEWSGRPS'
p5234
I2655
sS'FIRSTJOB'
p5235
I4296
sS'FRSTGRP2'
p5236
I5500
sS'FRSTGRP3'
p5237
I5501
sS'CRIMIMP'
p5238
I262
sS'FRSTGRP1'
p5239
I5499
sS'ASKMENTL'
p5240
I5166
sS'FRSTGRP4'
p5241
I5502
sS'FRSTGRP5'
p5242
I5503
sS'TRTUNEMP'
p5243
I1462
sS'COMPPERF'
p5244
I2862
sS'ABCON3'
p5245
I597
sS'FEHLPMIL'
p5246
I784
sS'ABCON1'
p5247
I595
sS'IMPLIVES'
p5248
I1142
sS'MHLOSEFR'
p5249
I3730
sS'SECMILOP'
p5250
I5175
sS'SOCBAR'
p5251
I507
sS'MEDBSTSC'
p5252
I3378
sS'PAYDOJOB'
p5253
I4549
sS'COLDEG1'
p5254
I3352
sS'GRNEFFME'
p5255
I3835
sS'ENGNRING'
p5256
I3549
sS'COHABOK'
p5257
I4386
sS'HMO6'
p5258
I2215
sS'EQINCOME'
p5259
I4004
sS'WHTSCHL'
p5260
I2352
sS'CONTVY'
p5261
I452
sS'BIBLE1'
p5262
I4613
sS'WWWRAP'
p5263
I2483
sS'ASNSCHL'
p5264
I2372
sS'IFWRONG'
p5265
I4776
sS'INFADSTV'
p5266
I5077
sS'PORNFIRM'
p5267
I628
sS'SECDOCS'
p5268
I5161
sS'SPHLTH'
p5269
I4057
sS'DEJAVU'
p5270
I299
sS'TVOZONE'
p5271
I3424
sS'ETHADAPT'
p5272
I2747
sS'SCIENTMO'
p5273
I3525
sS'PAYFAM1'
p5274
I4311
sS'PALIVE'
p5275
I4111
sS'YOUSUP'
p5276
I1297
sS'TRYNEWJB'
p5277
I2838
sS'SISNUM'
p5278
I4115
sS'COWRKINT'
p5279
I2823
sS'VALRELIG'
p5280
I1979
sS'SOCTYPE2'
p5281
I4317
sS'SOCTYPE1'
p5282
I4316
sS'GENDERWK'
p5283
I2162
sS'CAPPUN2'
p5284
I251
sS'SPNATDIS'
p5285
I3674
sS'AIDUNEMP'
p5286
I4080
sS'AIDSREG'
p5287
I4973
sS'COHORT'
p5288
I5459
sS'ETHIGNOR'
p5289
I2744
sS'ISSP'
p5290
I5530
sS'MOTHER'
p5291
I309
sS'TRTSHAWN'
p5292
I1460
sS'ACQVABLK'
p5293
I3597
sS'WWWNEI'
p5294
I2506
sS'CONSIDEZ'
p5295
I493
sS'WRKGROWN'
p5296
I4336
sS'ENGBALLT'
p5297
I1626
sS'RACMAREL'
p5298
I704
sS'CLRGMAR1'
p5299
I3944
sS'AMIMP'
p5300
I1804
sS'MTCHURH5'
p5301
I3291
sS'NUMFRAT'
p5302
I3132
sS'CLRGMAR3'
p5303
I3946
sS'OPPROF'
p5304
I4006
sS'BROTIME'
p5305
I4121
sS'HANDMOVE'
p5306
I2831
sS'SPETH1'
p5307
I5224
sS'SPETH2'
p5308
I5225
sS'SPETH3'
p5309
I5226
sS'STRESSFL'
p5310
I2928
sS'ELECVOTE'
p5311
I4883
sS'LOCALNUM'
p5312
I4545
sS'IMMSTATS'
p5313
I3032
sS'MARRCOUN'
p5314
I3545
sS'POVCOL'
p5315
I1215
sS'JOBTRAIN'
p5316
I804
sS'ENGBSTNK'
p5317
I3500
sS'FAIRHSPS'
p5318
I2286
sS'CONTMSLM'
p5319
I2299
sS'WHTSDIFF'
p5320
I2754
sS'HOSPICE'
p5321
I2275
sS'VOTE76'
p5322
I135
sS'VOTE72'
p5323
I132
sS'DECOTHS'
p5324
I1069
sS'LDCGAP'
p5325
I4304
sS'HARMGOOD'
p5326
I4679
sS'CONSCIY'
p5327
I454
sS'RACDIF2'
p5328
I712
sS'USCLASS5'
p5329
I221
sS'SPREL16'
p5330
I338
sS'MHHIRED'
p5331
I3744
sS'ROLEGP'
p5332
I5061
sS'DIVORCE5'
p5333
I720
sS'ECONSUP'
p5334
I4583
sS'AMBORNIN'
p5335
I4765
sS'USCLASS2'
p5336
I218
sS'ACCPTOTH'
p5337
I2895
sS'CHLDVIG'
p5338
I2922
sS'NOONEHRT'
p5339
I1704
sS'WELFARE1'
p5340
I5453
sS'GRPRELIG'
p5341
I4858
sS'ALIKE6'
p5342
I1489
sS'CLOSE24'
p5343
I843
sS'ALIKE4'
p5344
I1487
sS'MHIMPTRT'
p5345
I3726
sS'ALIKE2'
p5346
I1485
sS'ALIKE3'
p5347
I1486
sS'CLOSE23'
p5348
I842
sS'ALIKE1'
p5349
I1484
sS'KIDCALL'
p5350
I4171
sS'ALIKE8'
p5351
I1491
sS'ETHIMP'
p5352
I2743
sS'ETHSAME'
p5353
I2752
sS'DENSP'
p5354
I4629
sS'CIDEREG'
p5355
I4956
sS'PROTEST6'
p5356
I3986
sS'PROTEST5'
p5357
I3985
sS'PROTEST4'
p5358
I3984
sS'PROTEST3'
p5359
I3983
sS'PROTEST2'
p5360
I3982
sS'PROTEST1'
p5361
I3981
sS'WHTGOVT'
p5362
I1649
sS'WORKSO'
p5363
I1172
sS'INTSPACE'
p5364
I3460
sS'POLEFY3'
p5365
I3971
sS'NATENVIY'
p5366
I184
sS'ACQNHNO'
p5367
I3629
sS'NATENVIZ'
p5368
I195
sS'VOLWKCHR'
p5369
I4649
sS'NATENVIR'
p5370
I166
sS'NONUKE'
p5371
I809
sS'KD12RELIG'
p5372
I3808
sS'HLPHITEC'
p5373
I4053
sS'TRTREPS'
p5374
I1458
sS'SOLLIT'
p5375
I975
sS'EARNSMOR'
p5376
I4380
sS'MEDAGRSC'
p5377
I3374
sS'SEXSEX18'
p5378
I3905
sS'REVMEET'
p5379
I4846
sS'FEWRITE'
p5380
I581
sS'TIMEWORK'
p5381
I4424
sS'PUNENMY'
p5382
I5189
sS'POLEFF20'
p5383
I4869
sS'PAISC681'
p5384
I5427
sS'RELIG30'
p5385
I2424
sS'GODPARTS'
p5386
I4181
sS'PUNLEAK'
p5387
I5188
sS'EXTRAVAL'
p5388
I2866
sS'CHLDSOON'
p5389
I605
sS'MHDOHERB'
p5390
I3700
sS'SOCREL'
p5391
I504
sS'POSSLQY'
p5392
I4132
sS'ARTSMIN'
p5393
I2468
sS'HISPWRK'
p5394
I2370
sS'RESNATUR'
p5395
I4685
sS'POLOPTS'
p5396
I4865
sS'CHAT12'
p5397
I2443
sS'SLFMANGD'
p5398
I3562
sS'SUICIDE4'
p5399
I635
sS'SHOWFEEL'
p5400
I1747
sS'SUICIDE1'
p5401
I632
sS'SUICIDE2'
p5402
I633
sS'SUICIDE3'
p5403
I634
sS'TAXSERVE'
p5404
I763
sS'HSPJOBS'
p5405
I1226
sS'IWRKHARD'
p5406
I4509
sS'ASNJOBS'
p5407
I1228
sS'INTJOB'
p5408
I4489
sS'COMPFRI'
p5409
I2599
sS'USELANG'
p5410
I2305
sS'TALKSUP'
p5411
I2872
sS'KIDPARS'
p5412
I4209
sS'WWWMINW'
p5413
I2594
sS'BLKZONE'
p5414
I1216
sS'APPEMPS'
p5415
I4581
sS'WWWMINH'
p5416
I2581
sS'NOTREAT'
p5417
I2273
sS'WWWMINO'
p5418
I2610
sS'COMPSCHL'
p5419
I2597
sS'BUYAUTO'
p5420
I1875
sS'PADOTDAT'
p5421
I122
sS'SUNDAY'
p5422
I5266
sS'CORRUPT'
p5423
I4302
sS'GIVHLTH'
p5424
I1947
sS'FTWORK1'
p5425
I2908
sS'SUPNUM'
p5426
I4541
sS'FORGIVE2'
p5427
I2123
sS'FORGIVE3'
p5428
I2124
sS'FORGIVE1'
p5429
I2122
sS'NEWUSED'
p5430
I1817
sS'CHLDIDEL'
p5431
I602
sS'RELPRIVT'
p5432
I1814
sS'GUERILLA'
p5433
I810
sS'GMPOL'
p5434
I3491
sS'MHDOEXRC'
p5435
I3705
sS'SATHEALT'
p5436
I430
sS'ABLEGAL'
p5437
I685
sS'DATEINTV'
p5438
I5422
sS'PROZSLF4'
p5439
I2255
sS'PROZSLF2'
p5440
I2253
sS'PROZSLF3'
p5441
I2254
sS'ASKSEXOR'
p5442
I5169
sS'PROZSLF1'
p5443
I2252
sS'COHABIT'
p5444
I4375
sS'HAVCHLD1'
p5445
I2912
sS'HSLIBART'
p5446
I4017
sS'GOVT30'
p5447
I2416
sS'JOKESWK'
p5448
I3022
sS'POLINFGW'
p5449
I3365
sS'WRKEARN'
p5450
I4470
sS'PAYLAW'
p5451
I4254
sS'PAJEW'
p5452
I1049
sS'POLINFGN'
p5453
I2556
sS'POLINFGM'
p5454
I3395
sS'ORTLKCLR'
p5455
I2039
sS'DOCASKME'
p5456
I2758
sS'RELDEALR'
p5457
I1827
sS'CIDEWHO'
p5458
I4952
sS'GRPWORK'
p5459
I4857
sS'ACQNHGAY'
p5460
I3601
sS'CONPRESY'
p5461
I450
sS'SBOCC80'
p5462
I1604
sS'RICHHLTH'
p5463
I4306
sS'SCIFROMY'
p5464
I3509
sS'BORN'
p5465
I81
sS'CITIZEN'
p5466
I4811
sS'INDPERF'
p5467
I2864
sS'MHFEELEM'
p5468
I3741
sS'LOCSELF'
p5469
I1015
sS'PROMOTED'
p5470
I1283
sS'PREMARSX'
p5471
I614
sS'WWWGTHIC'
p5472
I2480
sS'FRNDAWK'
p5473
I1881
sS'GIVFOUND'
p5474
I1958
sS'NUMFREND'
p5475
I1117
sS'MEDWEAK'
p5476
I2981
sS'MININC'
p5477
I559
sS'TLKCLRGY'
p5478
I2029
sS'BADBRKS'
p5479
I1743
sS'IMMPUSH'
p5480
I1637
sS'CLEAN'
p5481
I460
sS'HEALTH30'
p5482
I2423
sS'BYPHONE'
p5483
I2562
sS'PAYSEC'
p5484
I4250
sS'WWWFRND'
p5485
I2507
sS'FEPRESCH'
p5486
I688
sS'JOBOFF'
p5487
I542
sS'PROGTAX'
p5488
I4003
sS'BORROWED'
p5489
I1866
sS'INTRHOME'
p5490
I3351
sS'VETYEARS'
p5491
I5240
sS'HOMESCH'
p5492
I1131
sS'PSYCFDOC'
p5493
I2200
sS'COMBLK'
p5494
I2341
sS'AWAY14'
p5495
I5369
sS'AWAY13'
p5496
I5363
sS'AWAY12'
p5497
I5357
sS'AWAY11'
p5498
I5351
sS'AWAY10'
p5499
I5345
sS'NUMRELEX'
p5500
I3066
sS'MEDTREAT'
p5501
I3546
sS'EMAILMIN'
p5502
I2398
sS'BURGLR'
p5503
I660
sS'ADVSTU'
p5504
I2522
sS'VALENVIR'
p5505
I1981
sS'SOLVEOWN'
p5506
I2983
sS'HARSEXCL'
p5507
I3935
sS'WHYBIZ'
p5508
I3789
sS'PRIVSCH'
p5509
I1136
sS'FAMBLKS'
p5510
I2279
sS'LIBTEMP'
p5511
I356
sS'SCIMORAL'
p5512
I1031
sS'MEDITATE'
p5513
I2108
sS'UNCAUNTS'
p5514
I4176
sS'BRAZIL'
p5515
I5449
sS'NATHEALY'
p5516
I185
sS'WELFARE2'
p5517
I5454
sS'WELFARE3'
p5518
I5455
sS'WELFARE4'
p5519
I5456
sS'WELFARE5'
p5520
I5457
sS'WELFARE6'
p5521
I5458
sS'PROUDSSS'
p5522
I4781
sS'SWITWHY2'
p5523
I1040
sS'SWITWHY1'
p5524
I1039
sS'NATHEALZ'
p5525
I196
sS'HOMOSEX'
p5526
I617
sS'PRIVGOVT'
p5527
I4505
sS'TYPLIT'
p5528
I3127
sS'OVERWORK'
p5529
I2797
sS'BIGBAND'
p5530
I1370
sS'EMFAMOTH'
p5531
I2619
sS'BIGBANG'
p5532
I3345
sS'XHAUSTN'
p5533
I4528
sS'ADULTS'
p5534
I88
sS'MHDOACTV'
p5535
I3702
sS'SPRTPRSN'
p5536
I2138
sS'POSTLIFE'
p5537
I283
sS'PORNINFO'
p5538
I627
sS'RACDIN'
p5539
I367
sS'LIBMSLM'
p5540
I250
sS'RACDIS'
p5541
I373
sS'ACTSPORT'
p5542
I984
sS'MHDOFAM'
p5543
I3688
sS'CUTSPDR'
p5544
I746
sS'PROZFOR2'
p5545
I2241
sS'PROZFOR3'
p5546
I2242
sS'PROZFOR1'
p5547
I2240
sS'HVYMETAL'
p5548
I1387
sS'INPERSON'
p5549
I2561
s.